This is partially commented/analysed objdump of lpc1313

NOTES
- LR when entering reset handler is 0x1fff12c7 on lpc1343 (that fits with this lpc1313 dump, so I'm suspecting it's the same boot binary).
- This dump contains USB code. More evidence to support same-bootloader-for-lpc13xx-chips hypothesis.

CRP modes:
- NO_ISP 0x4e697370 no isp, swd enabled
- CRP1   0x12345678 no swd, isp: no read, no write flashsec0, no write
  ram<0x10000300
- CRP2   0x87654321 no swd, isp: no read, no write, no go; only erase all
- CRP3   0x43218765 no swd, no isp via PIO0_1

Memory map:
- 0x00000000 flash
- 0x10000000 ram
- 0x1fff0000 boot rom 16kB
- 0x40000000 APB peripherals
- 0x50000000 AHB peripherals
- 0xe0000000 private peripheral bus


bootloader_dump.elf:     file format elf32-littlearm
bootloader_dump.elf
architecture: arm, flags 0x00000010:
HAS_SYMS
start address 0x00000000
private flags = 0: [APCS-32] [FPA float format]

Sections:
Idx Name          Size      VMA       LMA       File off  Algn
  0 .text         00004000  1fff0000  1fff0000  00000034  2**0
                  CONTENTS, ALLOC, LOAD, READONLY, DATA
SYMBOL TABLE:
1fff0000 l    d  .text	00000000 .text
1fff0000 g       .text	00000000 _binary_bootloader_dump_bin_start
1fff4000 g       .text	00000000 _binary_bootloader_dump_bin_end
00004000 g       *ABS*	00000000 _binary_bootloader_dump_bin_size



Disassembly of section .text:

1fff0000:
1fff0000: 10000ffc	# stack
1fff0004: 1fff0105	# reset
1fff0008: 1fff0fa5	# nmi		return;
1fff000c: 1fff0fa7	# hardfault	while (1) ;
1fff0010: 1fff0fa9	# memmanage	while (1) ;
1fff0014: 1fff0fab	# busfault	while (1) ;
1fff0018: 1fff0fad	# usagefault	while (1) ;
1fff001c: 00000000
1fff0020: 00000000
1fff0024: 00000000
1fff0028: 00000000
1fff002c: 1fff0faf	# svc		return;
1fff0030: 1fff0fb1	# debugmon	return;
1fff0034: 00000000
1fff0038: 1fff0fb3	# pendsv	return;
1fff003c: 1fff0fb5	# systick	return;
1fff0040: 00000000	# P0_0 wakeup
1fff0044: 00000000
1fff0048: 00000000
1fff004c: 00000000
1fff0050: 00000000
1fff0054: 00000000
1fff0058: 00000000
1fff005c: 00000000
1fff0060: 00000000
1fff0064: 00000000
1fff0068: 00000000
1fff006c: 00000000
1fff0070: 00000000	# P1_0 wakeup
1fff0074: 00000000
1fff0078: 00000000
1fff007c: 00000000
1fff0080: 00000000
1fff0084: 00000000
1fff0088: 00000000
1fff008c: 00000000
1fff0090: 00000000
1fff0094: 00000000
1fff0098: 1fff2aed	# P1_10
1fff009c: 1fff2aed	# P1_11
1fff00a0: 00000000	# P2_0 wakeup
1fff00a4: 00000000
1fff00a8: 00000000
1fff00ac: 00000000
1fff00b0: 00000000
1fff00b4: 00000000
1fff00b8: 00000000
1fff00bc: 00000000
1fff00c0: 00000000
1fff00c4: 00000000
1fff00c8: 00000000
1fff00cc: 00000000
1fff00d0: 00000000	# P3_0 wakeup
1fff00d4: 00000000
1fff00d8: 00000000
1fff00dc: 00000000
1fff00e0: 00000000
1fff00e4: 00000000
1fff00e8: 00000000
1fff00ec: 00000000
1fff00f0: 00000000
1fff00f4: 00000000
1fff00f8: 00000000
1fff00fc: 1fff2aed	# usb irqhandler
1fff0100: 1fff2aed	# usb fiqhandler

1fff0105: <reset_handler>
1fff0104:	4a00      	ldr	r2, [pc, #0]	; (1fff0108)
1fff0106:	4710      	bx	r2
1fff0108: 1fff010d
1fff010c:	4a1a      	ldr	r2, [pc, #104]	; (1fff0178) # r2 = 400483f0
1fff010e:	4b1b      	ldr	r3, [pc, #108]	; (1fff017c)
1fff0110:	681b      	ldr	r3, [r3, #0]	r3 = CRPaddr
1fff0112:	4d1c      	ldr	r5, [pc, #112]	; (1fff0184)
1fff0114:	682d      	ldr	r5, [r5, #0]	r5 = CRP3
1fff0116:	4e1c      	ldr	r6, [pc, #112]	; (1fff0188)
1fff0118:	6836      	ldr	r6, [r6, #0]	r6 = CRP1
1fff011a:	681c      	ldr	r4, [r3, #0]	r4 = [CRPaddr]
1fff011c:	42ac      	cmp	r4, r5
1fff011e:	d001      	beq.n	1fff0124
1fff0120:	42b4      	cmp	r4, r6
1fff0122:	d101      	bne.n	1fff0128

# CRP3 handler
1fff0124:	4c16      	ldr	r4, [pc, #88]	; (1fff0180)
1fff0126:	6824      	ldr	r4, [r4, #0]	# r4 = CRP2
# !CRP3 && !CRP1 handler
1fff0128:	6014      	str	r4, [r2, #0]	[400483f0] = [2fc] (unless CRP1/3, then = CRP2)
1fff012a:	4a0d      	ldr	r2, [pc, #52]	; (1fff0160) # r2 = 4003c000      # flash

# some flash configuration
^[4003c000] |= 0x40
1fff012c:	6813      	ldr	r3, [r2, #0]
1fff012e:	2440      	movs	r4, #64	; 0x40
1fff0130:	4323      	orrs	r3, r4
1fff0132:	6013      	str	r3, [r2, #0]

# some weird sp setup
# if ([000005d0] == 3456abcd) sp = [0000043c]-31
1fff0134:	4b0b      	ldr	r3, [pc, #44]	; (1fff0164)
1fff0136:	681a      	ldr	r2, [r3, #0]	# r2 = [0000043c]
1fff0138:	4c0b      	ldr	r4, [pc, #44]	; (1fff0168)
1fff013a:	6824      	ldr	r4, [r4, #0]	# r4 = [000005d0]
1fff013c:	4d0b      	ldr	r5, [pc, #44]	; (1fff016c)
1fff013e:	682d      	ldr	r5, [r5, #0]	# r5 = [1fff01a0] = 3456abcd
1fff0140:	42ac      	cmp	r4, r5
1fff0142:	d001      	beq.n	1fff0148
1fff0144:	4a0a      	ldr	r2, [pc, #40]	; (1fff0170)
1fff0146:	6812      	ldr	r2, [r2, #0]	# r2 = 10000fff
1fff0148:	3a1f      	subs	r2, #31
1fff014a:	4695      	mov	sp, r2		# sp = 10000fe0

1fff014c:	4a09      	ldr	r2, [pc, #36]	; (1fff0174)
1fff014e:	4710      	bx	r2		# jump to 1fff12db reset_handler_2

# start_user_code(vect_ptr)
1fff0150:	6801      	ldr	r1, [r0, #0]
1fff0152:	468d      	mov	sp, r1
1fff0154:	6841      	ldr	r1, [r0, #4]
1fff0156:	4708      	bx	r1

1fff0158:	6801      	ldr	r1, [r0, #0]
1fff015a:	468d      	mov	sp, r1
1fff015c:	6841      	ldr	r1, [r0, #4]
1fff015e:	4708      	bx	r1
1fff0160: 4003c000	# flash
1fff0164: 0000043c
1fff0168: 000005d0
1fff016c: 1fff01a0
1fff0170: 1fff019c
1fff0174: 1fff12db
1fff0178: 400483f0	# SYSCONFx, +4 = device_id
1fff017c: 1fff018c	# CRP ptr
1fff0180: 1fff0190	# CRP2 ptr
1fff0184: 1fff0194	# CRP3 ptr
1fff0188: 1fff0198	# CRP1 ptr
1fff018c  000002fc	# CRP addr
1fff0190  87654321	# CRP2
1fff0194: 43218765	# CRP3
1fff0198: 12345678	# CRP1
1fff019c: 10000fff
1fff01a0: 3456abcd

<cmd_57_reinvoke_isp>
1fff01a4:	b510      	push	{r4, lr}
1fff01a6:	4925      	ldr	r1, [pc, #148]	; (1fff023c)
1fff01a8:	2000      	movs	r0, #0
1fff01aa:	6008      	str	r0, [r1, #0]
1fff01ac:	f001 f84f 	bl	1fff124e <boot_enter_isp>
1fff01b0:	bd10      	pop	{r4, pc}

<cmd_56_compare>
1fff01b2:	b5f8      	push	{r3, r4, r5, r6, r7, lr}
1fff01b4:	460d      	mov	r5, r1
1fff01b6:	4601      	mov	r1, r0
1fff01b8:	4604      	mov	r4, r0
1fff01ba:	2000      	movs	r0, #0
1fff01bc:	2264      	movs	r2, #100	; 0x64
1fff01be:	310c      	adds	r1, #12
1fff01c0:	4603      	mov	r3, r0
1fff01c2:	f001 fc42 	bl	1fff1a4a
1fff01c6:	6028      	str	r0, [r5, #0]
1fff01c8:	2800      	cmp	r0, #0
1fff01ca:	d12d      	bne.n	1fff0228
1fff01cc:	2266      	movs	r2, #102	; 0x66
1fff01ce:	1d21      	adds	r1, r4, #4
1fff01d0:	68e3      	ldr	r3, [r4, #12]
1fff01d2:	f001 fc3a 	bl	1fff1a4a
1fff01d6:	6028      	str	r0, [r5, #0]
1fff01d8:	2800      	cmp	r0, #0
1fff01da:	d125      	bne.n	1fff0228
1fff01dc:	4621      	mov	r1, r4
1fff01de:	2266      	movs	r2, #102	; 0x66
1fff01e0:	3108      	adds	r1, #8
1fff01e2:	68e3      	ldr	r3, [r4, #12]
1fff01e4:	f001 fc31 	bl	1fff1a4a
1fff01e8:	6028      	str	r0, [r5, #0]
1fff01ea:	2800      	cmp	r0, #0
1fff01ec:	d11c      	bne.n	1fff0228
1fff01ee:	2201      	movs	r2, #1
1fff01f0:	03d2      	lsls	r2, r2, #15
1fff01f2:	6860      	ldr	r0, [r4, #4]
1fff01f4:	0093      	lsls	r3, r2, #2
1fff01f6:	4290      	cmp	r0, r2
1fff01f8:	d200      	bcs.n	1fff01fc
1fff01fa:	18c0      	adds	r0, r0, r3
1fff01fc:	2201      	movs	r2, #1
1fff01fe:	68a1      	ldr	r1, [r4, #8]
1fff0200:	03d2      	lsls	r2, r2, #15
1fff0202:	4291      	cmp	r1, r2
1fff0204:	d200      	bcs.n	1fff0208
1fff0206:	18c9      	adds	r1, r1, r3
1fff0208:	68e2      	ldr	r2, [r4, #12]
1fff020a:	e011      	b.n	1fff0230
1fff020c:	680e      	ldr	r6, [r1, #0]
1fff020e:	6807      	ldr	r7, [r0, #0]
1fff0210:	42be      	cmp	r6, r7
1fff0212:	d00a      	beq.n	1fff022a
1fff0214:	210a      	movs	r1, #10
1fff0216:	6029      	str	r1, [r5, #0]
1fff0218:	2201      	movs	r2, #1
1fff021a:	6861      	ldr	r1, [r4, #4]
1fff021c:	03d2      	lsls	r2, r2, #15
1fff021e:	4291      	cmp	r1, r2
1fff0220:	d200      	bcs.n	1fff0224
1fff0222:	1ac0      	subs	r0, r0, r3
1fff0224:	1a40      	subs	r0, r0, r1
1fff0226:	6068      	str	r0, [r5, #4]
1fff0228:	bdf8      	pop	{r3, r4, r5, r6, r7, pc}
1fff022a:	1d09      	adds	r1, r1, #4
1fff022c:	1d00      	adds	r0, r0, #4
1fff022e:	1f12      	subs	r2, r2, #4
1fff0230:	2a00      	cmp	r2, #0
1fff0232:	d1eb      	bne.n	1fff020c
1fff0234:	2000      	movs	r0, #0
1fff0236:	6028      	str	r0, [r5, #0]
1fff0238:	bdf8      	pop	{r3, r4, r5, r6, r7, pc}
1fff023a:	0000      	movs	r0, r0
1fff023c: 40048000
^
^# iap2(command[], result[])
^1fff0240:	b570      	push	{r4, r5, r6, lr}
^1fff0242:	6803      	ldr	r3, [r0, #0]	# r3 = iap command
^1fff0244:	2500      	movs	r5, #0
^1fff0246:	3b32      	subs	r3, #50	; 0x32  # remove the offset of
^50 from command
^1fff0248:	4a21      	ldr	r2, [pc, #132]	; (1fff02d0) # that
^special flash reg, 4003c000/FMC
^1fff024a:	2440      	movs	r4, #64	; 0x40
^1fff024c:	f002 fd5e 	bl	1fff2d0c  # cmd_jmp_table()
^1fff0250: 09	# num cmds
^1fff0251: 06	# cmd_50_prepare_sector_for_write
^1fff0252: 09	# cmd_51_copy_ram_to_flash
^1fff0253: 0c	# cmd_52_erase_sectors
^1fff0254: 0f	# cmd_53_blank_check_sectors
^1fff0255: 15	# cmd_54_read_part_id
^1fff0256: 2b	# cmd_55_read_boot_code_version
^1fff0257: 12	# cmd_56_compare
^1fff0258: 39	# cmd_57_reinvoke_isp
^1fff0259: 19	# cmd_58_read_uid
^1fff025a: 3c	# cmd_invalid
^1fff025b: 00
^
^1fff025c:	f000 fa17 	bl	1fff068e	# cmd_50_prepare_sector_for_write
^1fff0260:	bd70      	pop	{r4, r5, r6, pc}
^1fff0262:	f000 f975 	bl	1fff0550	# cmd_51_copy_ram_to_flash
^1fff0266:	bd70      	pop	{r4, r5, r6, pc}
^1fff0268:	f000 f8ee 	bl	1fff0448	# cmd_52_erase_sectors
^1fff026c:	bd70      	pop	{r4, r5, r6, pc}
^1fff026e:	f000 f853 	bl	1fff0318	# cmd_53_blank_check_sectors
^1fff0272:	bd70      	pop	{r4, r5, r6, pc}
^1fff0274:	f7ff ff9d 	bl	1fff01b2	# cmd_56_compare
^1fff0278:	bd70      	pop	{r4, r5, r6, pc}
^
^1fff027a:	4816      	ldr	r0, [pc, #88]	; (1fff02d4)	# cmd_54_read_part_id
^1fff027c:	6b40      	ldr	r0, [r0, #52]	; 0x34  #
^r0=[400483f4/DEVICE_ID]
^1fff027e:	6048      	str	r0, [r1, #4]
^1fff0280:	bd70      	pop	{r4, r5, r6, pc}
^
^1fff0282:	600d      	str	r5, [r1, #0]	# cmd_58_read_uid
^^[4003c000] |= 0x40
^1fff0284:	6810      	ldr	r0, [r2, #0]
^1fff0286:	4320      	orrs	r0, r4
^1fff0288:	6010      	str	r0, [r2, #0]
^
^1fff028a:	4813      	ldr	r0, [pc, #76]	; (1fff02d8) # r0 =
^5dc
^1fff028c:	6803      	ldr	r3, [r0, #0]	# r3 = [5dc] = 200
^1fff02d8: 000005dc
^# a bit puzzled since this flash contains - confirm it's really uuid:
^5dc:  00000200
^200:  07070117
^204:  535306e3
^208:  4d114f5c
^20c:  f5000006
^
^1fff028e:	681b      	ldr	r3, [r3, #0]	# r3 = [200]
^1fff0290:	604b      	str	r3, [r1, #4]
^1fff0292:	6803      	ldr	r3, [r0, #0]
^1fff0294:	685b      	ldr	r3, [r3, #4]
^1fff0296:	608b      	str	r3, [r1, #8]
^1fff0298:	6803      	ldr	r3, [r0, #0]
^1fff029a:	689b      	ldr	r3, [r3, #8]
^1fff029c:	60cb      	str	r3, [r1, #12]
^1fff029e:	6800      	ldr	r0, [r0, #0]
^1fff02a0:	68c0      	ldr	r0, [r0, #12]
^1fff02a2:	6108      	str	r0, [r1, #16]
^1fff02a4:	e006      	b.n	1fff02b4
^
^1fff02a6:	600d      	str	r5, [r1, #0]	# cmd_55_read_boot_code_version
^^[4003c000] |= 0x40
^1fff02a8:	6810      	ldr	r0, [r2, #0]
^1fff02aa:	4320      	orrs	r0, r4
^1fff02ac:	6010      	str	r0, [r2, #0]
^
^1fff02ae:	480b      	ldr	r0, [pc, #44]	; (1fff02dc)
^1fff02dc: 00000434
^1fff02b0:	6800      	ldr	r0, [r0, #0]	# return [434]
^1fff02b2:	6048      	str	r0, [r1, #4]
^
^^[4003c000] &= ~0x40
^1fff02b4:	6810      	ldr	r0, [r2, #0]
^1fff02b6:	43a0      	bics	r0, r4
^1fff02b8:	6010      	str	r0, [r2, #0]
^
^^[4003c000] &= ~0x40
^1fff02ba:	6810      	ldr	r0, [r2, #0]
^1fff02bc:	43a0      	bics	r0, r4
^1fff02be:	6010      	str	r0, [r2, #0]
^
^1fff02c0:	bd70      	pop	{r4, r5, r6, pc}
^
^1fff02c2:	f7ff ff6f 	bl	1fff01a4	# cmd_57_reinvoke_isp
^1fff02c6:	bd70      	pop	{r4, r5, r6, pc}
^
^1fff02c8:	2001      	movs	r0, #1		# cmd_invalid
^1fff02ca:	6008      	str	r0, [r1, #0]	# just return 1
^1fff02cc:	bd70      	pop	{r4, r5, r6, pc}
^
^1fff02ce: 0000
^1fff02d0: 4003c000	# flash
^1fff02d4: 400483c0
^1fff02d8: 000005dc
^1fff02dc: 00000434
^
^<flash_sector_valid>: # r0 < r1 && both are <= flash_sector_last
^1fff02e0:	b530      	push	{r4, r5, lr}
^1fff02e2:	4af9      	ldr	r2, [pc, #996]	; (1fff06c8)
^1fff06c8: 4003c000	# flash
^
^[4003c000] |= 0x40
^1fff02e4:	6814      	ldr	r4, [r2, #0]
^1fff02e6:	2340      	movs	r3, #64	; 0x40
^1fff02e8:	431c      	orrs	r4, r3
^1fff02ea:	6014      	str	r4, [r2, #0]
^
^1fff02ec:	4cf7      	ldr	r4, [pc, #988]	; (1fff06cc)
^1fff06cc: 00000440 # = 7 (last flash sector?)
^1fff02ee:	6825      	ldr	r5, [r4, #0]
^1fff02f0:	42a8      	cmp	r0, r5
^1fff02f2:	d801      	bhi.n	1fff02f8	# invalid sector
^1fff02f4:	42a9      	cmp	r1, r5
^1fff02f6:	d903      	bls.n	1fff0300
^
^[4003c000] &= ~0x40
^1fff02f8:	6810      	ldr	r0, [r2, #0]
^1fff02fa:	4398      	bics	r0, r3
^1fff02fc:	6010      	str	r0, [r2, #0]
^1fff02fe:	e004      	b.n	1fff030a	# invalid sector
^
^[4003c000] &= ~0x40
^1fff0300:	6814      	ldr	r4, [r2, #0]
^1fff0302:	439c      	bics	r4, r3
^1fff0304:	6014      	str	r4, [r2, #0]
^
^1fff0306:	4288      	cmp	r0, r1
^1fff0308:	d901      	bls.n	1fff030e	# OK
^1fff030a:	2007      	movs	r0, #7	# 7=INVALID_SECTOR
^1fff030c:	bd30      	pop	{r4, r5, pc}
^
^[4003c000] &= ~0x40
^1fff030e:	6810      	ldr	r0, [r2, #0]
^1fff0310:	4398      	bics	r0, r3
^1fff0312:	6010      	str	r0, [r2, #0]
^
^1fff0314:	2000      	movs	r0, #0
^1fff0316:	bd30      	pop	{r4, r5, pc}

<cmd_53_blank_check_sectors>
1fff0318:	b570      	push	{r4, r5, r6, lr}
1fff031a:	460c      	mov	r4, r1
1fff031c:	4605      	mov	r5, r0
1fff031e:	6881      	ldr	r1, [r0, #8]
1fff0320:	6840      	ldr	r0, [r0, #4]
1fff0322:	f7ff ffdd 	bl	1fff02e0  # <flash_sector_valid>
1fff0326:	6020      	str	r0, [r4, #0]
1fff0328:	2800      	cmp	r0, #0
1fff032a:	d11d      	bne.n	1fff0368	# err out
1fff032c:	49e6      	ldr	r1, [pc, #920]	; (1fff06c8)
^1fff06c8: 4003c000	# flash
^[4003c000] |= 0x40
1fff032e:	6808      	ldr	r0, [r1, #0]
1fff0330:	2640      	movs	r6, #64	; 0x40
1fff0332:	4330      	orrs	r0, r6
1fff0334:	6008      	str	r0, [r1, #0]

1fff0336:	6868      	ldr	r0, [r5, #4]  # first sector
1fff0338:	68ab      	ldr	r3, [r5, #8]  # last sector
1fff033a:	0082      	lsls	r2, r0, #2
1fff033c:	48e4      	ldr	r0, [pc, #912]	; (1fff06d0)
1fff06d0: 00000490 # flash sector 0 start
1fff033e:	4de5      	ldr	r5, [pc, #916]	; (1fff06d4)
1fff06d4: 00000520 # flash sector 0 end
1fff0340:	009b      	lsls	r3, r3, #2
1fff0342:	5880      	ldr	r0, [r0, r2]  # flash sector x start
1fff0344:	58eb      	ldr	r3, [r5, r3]  # flash sector x end
^[4003c000] &= ~0x40
1fff0346:	680d      	ldr	r5, [r1, #0]
1fff0348:	4602      	mov	r2, r0
1fff034a:	43b5      	bics	r5, r6
1fff034c:	600d      	str	r5, [r1, #0]

1fff034e:	02f1      	lsls	r1, r6, #11
1fff0350:	e00c      	b.n	1fff036c
1fff0352:	1845      	adds	r5, r0, r1
1fff0354:	682d      	ldr	r5, [r5, #0]
1fff0356:	1c6d      	adds	r5, r5, #1
1fff0358:	d007      	beq.n	1fff036a  # data is 0xffffffff,
continue
1fff035a:	2308      	movs	r3, #8
1fff035c:	1a82      	subs	r2, r0, r2
1fff035e:	6023      	str	r3, [r4, #0]
1fff0360:	1840      	adds	r0, r0, r1
1fff0362:	6062      	str	r2, [r4, #4]
1fff0364:	6800      	ldr	r0, [r0, #0]
1fff0366:	60a0      	str	r0, [r4, #8]
1fff0368:	bd70      	pop	{r4, r5, r6, pc}

1fff036a:	1d00      	adds	r0, r0, #4
1fff036c:	4298      	cmp	r0, r3
1fff036e:	d3f0      	bcc.n	1fff0352
1fff0370:	2000      	movs	r0, #0
1fff0372:	6020      	str	r0, [r4, #0]
1fff0374:	bd70      	pop	{r4, r5, r6, pc}


1fff0376:	b510      	push	{r4, lr}
1fff0378:	9c02      	ldr	r4, [sp, #8]
1fff037a:	6001      	str	r1, [r0, #0]
1fff037c:	2a00      	cmp	r2, #0
1fff037e:	d004      	beq.n	1fff038a
1fff0380:	6013      	str	r3, [r2, #0]
1fff0382:	6810      	ldr	r0, [r2, #0]
1fff0384:	4218      	tst	r0, r3
1fff0386:	d1fc      	bne.n	1fff0382
1fff0388:	bd10      	pop	{r4, pc}
1fff038a:	6820      	ldr	r0, [r4, #0]
1fff038c:	2800      	cmp	r0, #0
1fff038e:	d0fc      	beq.n	1fff038a
1fff0390:	bd10      	pop	{r4, pc}

1fff0392:	b5f8      	push	{r3, r4, r5, r6, r7, lr}
1fff0394:	468c      	mov	ip, r1
1fff0396:	49cc      	ldr	r1, [pc, #816]	; (1fff06c8)
^1fff06c8: 4003c000	# flash
1fff0398:	4616      	mov	r6, r2
1fff039a:	684b      	ldr	r3, [r1, #4]
1fff039c:	2500      	movs	r5, #0
1fff039e:	2205      	movs	r2, #5
1fff03a0:	439a      	bics	r2, r3
1fff03a2:	d132      	bne.n	1fff040a
1fff03a4:	4604      	mov	r4, r0
1fff03a6:	2740      	movs	r7, #64	; 0x40
1fff03a8:	e017      	b.n	1fff03da
1fff03aa:	2001      	movs	r0, #1
1fff03ac:	40a0      	lsls	r0, r4
1fff03ae:	4305      	orrs	r5, r0
1fff03b0:	48c5      	ldr	r0, [pc, #788]	; (1fff06c8)
^1fff06c8: 4003c000	# flash
1fff03b2:	6801      	ldr	r1, [r0, #0]
1fff03b4:	4339      	orrs	r1, r7
1fff03b6:	6001      	str	r1, [r0, #0]
1fff03b8:	4ac5      	ldr	r2, [pc, #788]	; (1fff06d0)
1fff06d0: 00000490
1fff03ba:	00a1      	lsls	r1, r4, #2
1fff03bc:	5851      	ldr	r1, [r2, r1]
1fff03be:	2201      	movs	r2, #1
1fff03c0:	0452      	lsls	r2, r2, #17
1fff03c2:	1889      	adds	r1, r1, r2
1fff03c4:	6802      	ldr	r2, [r0, #0]
1fff03c6:	43ba      	bics	r2, r7
1fff03c8:	6002      	str	r2, [r0, #0]
1fff03ca:	600e      	str	r6, [r1, #0]
1fff03cc:	2200      	movs	r2, #0
1fff03ce:	49c2      	ldr	r1, [pc, #776]	; (1fff06d8)
1fff03d0:	4613      	mov	r3, r2
1fff03d2:	9000      	str	r0, [sp, #0]
1fff03d4:	f7ff ffcf 	bl	1fff0376
1fff03d8:	1c64      	adds	r4, r4, #1
1fff03da:	4564      	cmp	r4, ip
1fff03dc:	d9e5      	bls.n	1fff03aa
1fff03de:	49ba      	ldr	r1, [pc, #744]	; (1fff06c8)
^1fff06c8: 4003c000	# flash
1fff03e0:	6808      	ldr	r0, [r1, #0]
1fff03e2:	4338      	orrs	r0, r7
1fff03e4:	6008      	str	r0, [r1, #0]
1fff03e6:	48bd      	ldr	r0, [pc, #756]	; (1fff06dc)
1fff03e8:	6800      	ldr	r0, [r0, #0]
1fff03ea:	383f      	subs	r0, #63	; 0x3f
1fff03ec:	2e00      	cmp	r6, #0
1fff03ee:	d102      	bne.n	1fff03f6
1fff03f0:	6bc2      	ldr	r2, [r0, #60]	; 0x3c
1fff03f2:	43aa      	bics	r2, r5
1fff03f4:	63c2      	str	r2, [r0, #60]	; 0x3c
1fff03f6:	1c76      	adds	r6, r6, #1
1fff03f8:	d102      	bne.n	1fff0400
1fff03fa:	6bc2      	ldr	r2, [r0, #60]	; 0x3c
1fff03fc:	432a      	orrs	r2, r5
1fff03fe:	63c2      	str	r2, [r0, #60]	; 0x3c
1fff0400:	6808      	ldr	r0, [r1, #0]
1fff0402:	43b8      	bics	r0, r7
1fff0404:	6008      	str	r0, [r1, #0]
1fff0406:	2000      	movs	r0, #0
1fff0408:	bdf8      	pop	{r3, r4, r5, r6, r7, pc}
1fff040a:	200b      	movs	r0, #11
1fff040c:	bdf8      	pop	{r3, r4, r5, r6, r7, pc}

1fff040e:	b510      	push	{r4, lr}
1fff0410:	2200      	movs	r2, #0
1fff0412:	2401      	movs	r4, #1
1fff0414:	e003      	b.n	1fff041e
1fff0416:	4623      	mov	r3, r4
1fff0418:	4083      	lsls	r3, r0
1fff041a:	431a      	orrs	r2, r3
1fff041c:	1c40      	adds	r0, r0, #1
1fff041e:	4288      	cmp	r0, r1
1fff0420:	d9f9      	bls.n	1fff0416
1fff0422:	48a9      	ldr	r0, [pc, #676]	; (1fff06c8)
^1fff06c8: 4003c000	# flash
1fff0424:	6801      	ldr	r1, [r0, #0]
1fff0426:	2340      	movs	r3, #64	; 0x40
1fff0428:	4319      	orrs	r1, r3
1fff042a:	6001      	str	r1, [r0, #0]
1fff042c:	49ab      	ldr	r1, [pc, #684]	; (1fff06dc)
1fff042e:	6809      	ldr	r1, [r1, #0]
1fff0430:	393f      	subs	r1, #63	; 0x3f
1fff0432:	6bc9      	ldr	r1, [r1, #60]	; 0x3c
1fff0434:	4011      	ands	r1, r2
1fff0436:	6802      	ldr	r2, [r0, #0]
1fff0438:	439a      	bics	r2, r3
1fff043a:	6002      	str	r2, [r0, #0]
1fff043c:	2900      	cmp	r1, #0
1fff043e:	d101      	bne.n	1fff0444
1fff0440:	2000      	movs	r0, #0
1fff0442:	bd10      	pop	{r4, pc}
1fff0444:	2009      	movs	r0, #9
1fff0446:	bd10      	pop	{r4, pc}

<cmd_52_erase_sectors>
1fff0448:	b5f8      	push	{r3, r4, r5, r6, r7, lr}
1fff044a:	460e      	mov	r6, r1
1fff044c:	4604      	mov	r4, r0
1fff044e:	6881      	ldr	r1, [r0, #8]
1fff0450:	6840      	ldr	r0, [r0, #4]
1fff0452:	f7ff ff45 	bl	1fff02e0  # <flash_sector_valid>
1fff0456:	6030      	str	r0, [r6, #0]
1fff0458:	2800      	cmp	r0, #0
1fff045a:	d15b      	bne.n	1fff0514
1fff045c:	68a1      	ldr	r1, [r4, #8]
1fff045e:	6860      	ldr	r0, [r4, #4]
1fff0460:	f7ff ffd5 	bl	1fff040e
1fff0464:	6030      	str	r0, [r6, #0]
1fff0466:	2800      	cmp	r0, #0
1fff0468:	d154      	bne.n	1fff0514
1fff046a:	4f97      	ldr	r7, [pc, #604]	; (1fff06c8)
^1fff06c8: 4003c000	# flash
1fff046c:	6838      	ldr	r0, [r7, #0]
1fff046e:	2140      	movs	r1, #64	; 0x40
1fff0470:	4308      	orrs	r0, r1
1fff0472:	6038      	str	r0, [r7, #0]
1fff0474:	499a      	ldr	r1, [pc, #616]	; (1fff06e0)
1fff0476:	68e0      	ldr	r0, [r4, #12]
1fff0478:	6809      	ldr	r1, [r1, #0]
1fff047a:	f002 fc16 	bl	1fff2caa
1fff047e:	61f8      	str	r0, [r7, #28]
1fff0480:	4998      	ldr	r1, [pc, #608]	; (1fff06e4)
1fff0482:	68e0      	ldr	r0, [r4, #12]
1fff0484:	6809      	ldr	r1, [r1, #0]
1fff0486:	4348      	muls	r0, r1
1fff0488:	0a40      	lsrs	r0, r0, #9
1fff048a:	1cc0      	adds	r0, r0, #3
1fff048c:	2101      	movs	r1, #1
1fff048e:	03c9      	lsls	r1, r1, #15
1fff0490:	4308      	orrs	r0, r1
1fff0492:	60b8      	str	r0, [r7, #8]
1fff0494:	6865      	ldr	r5, [r4, #4]
1fff0496:	68a0      	ldr	r0, [r4, #8]
1fff0498:	4285      	cmp	r5, r0
1fff049a:	d01b      	beq.n	1fff04d4
1fff049c:	e016      	b.n	1fff04cc
1fff049e:	6839      	ldr	r1, [r7, #0]
1fff04a0:	4638      	mov	r0, r7
1fff04a2:	2340      	movs	r3, #64	; 0x40
1fff04a4:	4319      	orrs	r1, r3
1fff04a6:	6039      	str	r1, [r7, #0]
1fff04a8:	4a89      	ldr	r2, [pc, #548]	; (1fff06d0)
1fff06d0: 00000490
1fff04aa:	00a9      	lsls	r1, r5, #2
1fff04ac:	5851      	ldr	r1, [r2, r1]
1fff04ae:	02da      	lsls	r2, r3, #11
1fff04b0:	1889      	adds	r1, r1, r2
1fff04b2:	683a      	ldr	r2, [r7, #0]
1fff04b4:	439a      	bics	r2, r3
1fff04b6:	603a      	str	r2, [r7, #0]
1fff04b8:	2201      	movs	r2, #1
1fff04ba:	600a      	str	r2, [r1, #0]
1fff04bc:	4986      	ldr	r1, [pc, #536]	; (1fff06d8)
1fff04be:	2200      	movs	r2, #0
1fff04c0:	1e89      	subs	r1, r1, #2
1fff04c2:	4613      	mov	r3, r2
1fff04c4:	9700      	str	r7, [sp, #0]
1fff04c6:	f7ff ff56 	bl	1fff0376
1fff04ca:	1c6d      	adds	r5, r5, #1
1fff04cc:	68a0      	ldr	r0, [r4, #8]
1fff04ce:	1e40      	subs	r0, r0, #1
1fff04d0:	42a8      	cmp	r0, r5
1fff04d2:	d2e4      	bcs.n	1fff049e
1fff04d4:	6839      	ldr	r1, [r7, #0]
1fff04d6:	4638      	mov	r0, r7
1fff04d8:	2340      	movs	r3, #64	; 0x40
1fff04da:	4319      	orrs	r1, r3
1fff04dc:	6039      	str	r1, [r7, #0]
1fff04de:	68a1      	ldr	r1, [r4, #8]
1fff04e0:	008a      	lsls	r2, r1, #2
1fff04e2:	497b      	ldr	r1, [pc, #492]	; (1fff06d0)
1fff06d0: 00000490
1fff04e4:	5889      	ldr	r1, [r1, r2]
1fff04e6:	683a      	ldr	r2, [r7, #0]
1fff04e8:	439a      	bics	r2, r3
1fff04ea:	603a      	str	r2, [r7, #0]
1fff04ec:	2201      	movs	r2, #1
1fff04ee:	600a      	str	r2, [r1, #0]
1fff04f0:	4a7d      	ldr	r2, [pc, #500]	; (1fff06e8)
1fff04f2:	2107      	movs	r1, #7
1fff04f4:	6291      	str	r1, [r2, #40]	; 0x28
1fff04f6:	4a7c      	ldr	r2, [pc, #496]	; (1fff06e8)
1fff04f8:	497c      	ldr	r1, [pc, #496]	; (1fff06ec)
1fff04fa:	3220      	adds	r2, #32
1fff04fc:	9200      	str	r2, [sp, #0]
1fff04fe:	2200      	movs	r2, #0
1fff0500:	4613      	mov	r3, r2
1fff0502:	f7ff ff38 	bl	1fff0376
1fff0506:	2200      	movs	r2, #0
1fff0508:	43d2      	mvns	r2, r2
1fff050a:	68a1      	ldr	r1, [r4, #8]
1fff050c:	6860      	ldr	r0, [r4, #4]
1fff050e:	f7ff ff40 	bl	1fff0392
1fff0512:	6030      	str	r0, [r6, #0]
1fff0514:	bdf8      	pop	{r3, r4, r5, r6, r7, pc}

1fff0516:	b530      	push	{r4, r5, lr}
1fff0518:	2501      	movs	r5, #1
1fff051a:	e008      	b.n	1fff052e
1fff051c:	c910      	ldmia	r1!, {r4}
1fff051e:	c010      	stmia	r0!, {r4}
1fff0520:	07ac      	lsls	r4, r5, #30
1fff0522:	d103      	bne.n	1fff052c
1fff0524:	e000      	b.n	1fff0528
1fff0526:	1c64      	adds	r4, r4, #1
1fff0528:	4294      	cmp	r4, r2
1fff052a:	d3fc      	bcc.n	1fff0526
1fff052c:	1c6d      	adds	r5, r5, #1
1fff052e:	429d      	cmp	r5, r3
1fff0530:	d9f4      	bls.n	1fff051c
1fff0532:	bd30      	pop	{r4, r5, pc}

1fff0534:	b500      	push	{lr}
1fff0536:	4a64      	ldr	r2, [pc, #400]	; (1fff06c8)
^1fff06c8: 4003c000	# flash
1fff0538:	6853      	ldr	r3, [r2, #4]
1fff053a:	2205      	movs	r2, #5
1fff053c:	439a      	bics	r2, r3
1fff053e:	d001      	beq.n	1fff0544
1fff0540:	200b      	movs	r0, #11
1fff0542:	bd00      	pop	{pc}
1fff0544:	2204      	movs	r2, #4
1fff0546:	2340      	movs	r3, #64	; 0x40
1fff0548:	f7ff ffe5 	bl	1fff0516
1fff054c:	2000      	movs	r0, #0
1fff054e:	bd00      	pop	{pc}

<cmd_51_copy_ram_to_flash>
1fff0550:	b5f0      	push	{r4, r5, r6, r7, lr}
1fff0552:	b085      	sub	sp, #20
1fff0554:	4605      	mov	r5, r0
1fff0556:	6840      	ldr	r0, [r0, #4]
1fff0558:	9001      	str	r0, [sp, #4]
1fff055a:	68a8      	ldr	r0, [r5, #8]
1fff055c:	9002      	str	r0, [sp, #8]
1fff055e:	68e8      	ldr	r0, [r5, #12]
1fff0560:	9004      	str	r0, [sp, #16]
1fff0562:	460e      	mov	r6, r1
1fff0564:	2000      	movs	r0, #0
1fff0566:	2265      	movs	r2, #101	; 0x65
1fff0568:	a904      	add	r1, sp, #16
1fff056a:	4603      	mov	r3, r0
1fff056c:	f001 fa6d 	bl	1fff1a4a
1fff0570:	6030      	str	r0, [r6, #0]
1fff0572:	2800      	cmp	r0, #0
1fff0574:	d167      	bne.n	1fff0646
1fff0576:	2268      	movs	r2, #104	; 0x68
1fff0578:	a901      	add	r1, sp, #4
1fff057a:	9b04      	ldr	r3, [sp, #16]
1fff057c:	f001 fa65 	bl	1fff1a4a
1fff0580:	6030      	str	r0, [r6, #0]
1fff0582:	2800      	cmp	r0, #0
1fff0584:	d15f      	bne.n	1fff0646
1fff0586:	2267      	movs	r2, #103	; 0x67
1fff0588:	a902      	add	r1, sp, #8
1fff058a:	9b04      	ldr	r3, [sp, #16]
1fff058c:	f001 fa5d 	bl	1fff1a4a
1fff0590:	6030      	str	r0, [r6, #0]
1fff0592:	2800      	cmp	r0, #0
1fff0594:	d157      	bne.n	1fff0646
1fff0596:	9003      	str	r0, [sp, #12]
1fff0598:	2101      	movs	r1, #1
1fff059a:	9801      	ldr	r0, [sp, #4]
1fff059c:	0449      	lsls	r1, r1, #17
1fff059e:	1840      	adds	r0, r0, r1
1fff05a0:	4f49      	ldr	r7, [pc, #292]	; (1fff06c8)
^1fff06c8: 4003c000	# flash
1fff05a2:	9001      	str	r0, [sp, #4]
1fff05a4:	6838      	ldr	r0, [r7, #0]
1fff05a6:	2140      	movs	r1, #64	; 0x40
1fff05a8:	4308      	orrs	r0, r1
1fff05aa:	6038      	str	r0, [r7, #0]
1fff05ac:	2400      	movs	r4, #0
1fff05ae:	4849      	ldr	r0, [pc, #292]	; (1fff06d4)
1fff06d4: 00000520
1fff05b0:	4946      	ldr	r1, [pc, #280]	; (1fff06cc)
1fff05b2:	e012      	b.n	1fff05da
1fff05b4:	00a3      	lsls	r3, r4, #2
1fff05b6:	58c3      	ldr	r3, [r0, r3]
1fff05b8:	686a      	ldr	r2, [r5, #4]
1fff05ba:	429a      	cmp	r2, r3
1fff05bc:	d20c      	bcs.n	1fff05d8
1fff05be:	4611      	mov	r1, r2
1fff05c0:	68ea      	ldr	r2, [r5, #12]
1fff05c2:	1889      	adds	r1, r1, r2
1fff05c4:	00a2      	lsls	r2, r4, #2
1fff05c6:	5880      	ldr	r0, [r0, r2]
1fff05c8:	1c40      	adds	r0, r0, #1
1fff05ca:	4281      	cmp	r1, r0
1fff05cc:	d801      	bhi.n	1fff05d2
1fff05ce:	9403      	str	r4, [sp, #12]
1fff05d0:	e006      	b.n	1fff05e0
1fff05d2:	1c60      	adds	r0, r4, #1
1fff05d4:	9003      	str	r0, [sp, #12]
1fff05d6:	e003      	b.n	1fff05e0
1fff05d8:	1c64      	adds	r4, r4, #1
1fff05da:	680a      	ldr	r2, [r1, #0]
1fff05dc:	4294      	cmp	r4, r2
1fff05de:	d9e9      	bls.n	1fff05b4
1fff05e0:	6838      	ldr	r0, [r7, #0]
1fff05e2:	2140      	movs	r1, #64	; 0x40
1fff05e4:	4388      	bics	r0, r1
1fff05e6:	6038      	str	r0, [r7, #0]
1fff05e8:	4620      	mov	r0, r4
1fff05ea:	9903      	ldr	r1, [sp, #12]
1fff05ec:	f7ff ff0f 	bl	1fff040e
1fff05f0:	6030      	str	r0, [r6, #0]
1fff05f2:	2800      	cmp	r0, #0
1fff05f4:	d127      	bne.n	1fff0646
1fff05f6:	6838      	ldr	r0, [r7, #0]
1fff05f8:	2140      	movs	r1, #64	; 0x40
1fff05fa:	4308      	orrs	r0, r1
1fff05fc:	6038      	str	r0, [r7, #0]
1fff05fe:	4938      	ldr	r1, [pc, #224]	; (1fff06e0)
1fff0600:	6928      	ldr	r0, [r5, #16]
1fff0602:	6809      	ldr	r1, [r1, #0]
1fff0604:	f002 fb51 	bl	1fff2caa
1fff0608:	61f8      	str	r0, [r7, #28]
1fff060a:	4939      	ldr	r1, [pc, #228]	; (1fff06f0)
1fff060c:	6928      	ldr	r0, [r5, #16]
1fff060e:	6809      	ldr	r1, [r1, #0]
1fff0610:	4348      	muls	r0, r1
1fff0612:	0a45      	lsrs	r5, r0, #9
1fff0614:	1ced      	adds	r5, r5, #3
1fff0616:	2001      	movs	r0, #1
1fff0618:	03c0      	lsls	r0, r0, #15
1fff061a:	4305      	orrs	r5, r0
1fff061c:	6838      	ldr	r0, [r7, #0]
1fff061e:	2140      	movs	r1, #64	; 0x40
1fff0620:	4388      	bics	r0, r1
1fff0622:	6038      	str	r0, [r7, #0]
1fff0624:	9804      	ldr	r0, [sp, #16]
1fff0626:	e02a      	b.n	1fff067e
1fff0628:	2200      	movs	r2, #0
1fff062a:	4638      	mov	r0, r7
1fff062c:	2107      	movs	r1, #7
1fff062e:	4613      	mov	r3, r2
1fff0630:	9700      	str	r7, [sp, #0]
1fff0632:	f7ff fea0 	bl	1fff0376
1fff0636:	9902      	ldr	r1, [sp, #8]
1fff0638:	9801      	ldr	r0, [sp, #4]
1fff063a:	f7ff ff7b 	bl	1fff0534
1fff063e:	2800      	cmp	r0, #0
1fff0640:	d003      	beq.n	1fff064a
1fff0642:	200b      	movs	r0, #11
1fff0644:	6030      	str	r0, [r6, #0]
1fff0646:	b005      	add	sp, #20
1fff0648:	bdf0      	pop	{r4, r5, r6, r7, pc}
1fff064a:	4927      	ldr	r1, [pc, #156]	; (1fff06e8)
1fff064c:	2007      	movs	r0, #7
1fff064e:	6288      	str	r0, [r1, #40]	; 0x28
1fff0650:	4638      	mov	r0, r7
1fff0652:	60bd      	str	r5, [r7, #8]
1fff0654:	4a24      	ldr	r2, [pc, #144]	; (1fff06e8)
1fff0656:	4925      	ldr	r1, [pc, #148]	; (1fff06ec)
1fff0658:	3220      	adds	r2, #32
1fff065a:	9200      	str	r2, [sp, #0]
1fff065c:	2200      	movs	r2, #0
1fff065e:	1c89      	adds	r1, r1, #2
1fff0660:	4613      	mov	r3, r2
1fff0662:	f7ff fe88 	bl	1fff0376
1fff0666:	9801      	ldr	r0, [sp, #4]
1fff0668:	30ff      	adds	r0, #255	; 0xff
1fff066a:	3001      	adds	r0, #1
1fff066c:	9001      	str	r0, [sp, #4]
1fff066e:	9802      	ldr	r0, [sp, #8]
1fff0670:	30ff      	adds	r0, #255	; 0xff
1fff0672:	3001      	adds	r0, #1
1fff0674:	9002      	str	r0, [sp, #8]
1fff0676:	9804      	ldr	r0, [sp, #16]
1fff0678:	38ff      	subs	r0, #255	; 0xff
1fff067a:	3801      	subs	r0, #1
1fff067c:	9004      	str	r0, [sp, #16]
1fff067e:	2800      	cmp	r0, #0
1fff0680:	d1d2      	bne.n	1fff0628
1fff0682:	1e42      	subs	r2, r0, #1
1fff0684:	4620      	mov	r0, r4
1fff0686:	9903      	ldr	r1, [sp, #12]
1fff0688:	f7ff fe83 	bl	1fff0392
1fff068c:	e7db      	b.n	1fff0646

<cmd_50_prepare_sector_for_write>
1fff068e:	b570      	push	{r4, r5, r6, lr}
1fff0690:	460e      	mov	r6, r1
1fff0692:	4604      	mov	r4, r0
1fff0694:	6881      	ldr	r1, [r0, #8]
1fff0696:	6840      	ldr	r0, [r0, #4]
1fff0698:	f7ff fe22 	bl	1fff02e0  # <flash_sector_valid>
1fff069c:	6030      	str	r0, [r6, #0]
1fff069e:	2800      	cmp	r0, #0
1fff06a0:	d110      	bne.n	1fff06c4
1fff06a2:	4d09      	ldr	r5, [pc, #36]	; (1fff06c8)
^1fff06c8: 4003c000	# flash
1fff06a4:	69e8      	ldr	r0, [r5, #28]
1fff06a6:	2800      	cmp	r0, #0
1fff06a8:	d101      	bne.n	1fff06ae
1fff06aa:	2040      	movs	r0, #64	; 0x40
1fff06ac:	61e8      	str	r0, [r5, #28]
1fff06ae:	2200      	movs	r2, #0
1fff06b0:	68a1      	ldr	r1, [r4, #8]
1fff06b2:	6860      	ldr	r0, [r4, #4]
1fff06b4:	f7ff fe6d 	bl	1fff0392
1fff06b8:	6030      	str	r0, [r6, #0]
1fff06ba:	69e8      	ldr	r0, [r5, #28]
1fff06bc:	2840      	cmp	r0, #64	; 0x40
1fff06be:	d101      	bne.n	1fff06c4
1fff06c0:	2000      	movs	r0, #0
1fff06c2:	61e8      	str	r0, [r5, #28]
1fff06c4:	bd70      	pop	{r4, r5, r6, pc}
1fff06c8: 4003c000	# flash
1fff06cc: 00000440
1fff06d0: 00000490
1fff06d4: 00000520
1fff06d8: 00008087
1fff06dc: 0000043c
1fff06e0: 00000454
1fff06e4: 00000450
1fff06e8: 4003cfc0
1fff06ec: 00001081
1fff06f0: 0000044c

1fff06f4:	b510      	push	{r4, lr}
1fff06f6:	4822      	ldr	r0, [pc, #136]	; (1fff0780)
1fff06f8:	6800      	ldr	r0, [r0, #0]
1fff06fa:	6841      	ldr	r1, [r0, #4]
1fff06fc:	4821      	ldr	r0, [pc, #132]	; (1fff0784)
1fff06fe:	78c0      	ldrb	r0, [r0, #3]
1fff0700:	2801      	cmp	r0, #1
1fff0702:	d005      	beq.n	1fff0710
1fff0704:	2802      	cmp	r0, #2
1fff0706:	d001      	beq.n	1fff070c
1fff0708:	2803      	cmp	r0, #3
1fff070a:	d105      	bne.n	1fff0718
1fff070c:	2000      	movs	r0, #0
1fff070e:	bd10      	pop	{r4, pc}
1fff0710:	690a      	ldr	r2, [r1, #16]
1fff0712:	2140      	movs	r1, #64	; 0x40
1fff0714:	481c      	ldr	r0, [pc, #112]	; (1fff0788)
1fff0716:	4790      	blx	r2
1fff0718:	2001      	movs	r0, #1
1fff071a:	bd10      	pop	{r4, pc}
1fff071c:	b510      	push	{r4, lr}
1fff071e:	4818      	ldr	r0, [pc, #96]	; (1fff0780)
1fff0720:	6800      	ldr	r0, [r0, #0]
1fff0722:	6841      	ldr	r1, [r0, #4]
1fff0724:	4817      	ldr	r0, [pc, #92]	; (1fff0784)
1fff0726:	78c0      	ldrb	r0, [r0, #3]
1fff0728:	2801      	cmp	r0, #1
1fff072a:	d003      	beq.n	1fff0734
1fff072c:	2802      	cmp	r0, #2
1fff072e:	d003      	beq.n	1fff0738
1fff0730:	2803      	cmp	r0, #3
1fff0732:	d105      	bne.n	1fff0740
1fff0734:	2000      	movs	r0, #0
1fff0736:	bd10      	pop	{r4, pc}
1fff0738:	694a      	ldr	r2, [r1, #20]
1fff073a:	2140      	movs	r1, #64	; 0x40
1fff073c:	4812      	ldr	r0, [pc, #72]	; (1fff0788)
1fff073e:	4790      	blx	r2
1fff0740:	2001      	movs	r0, #1
1fff0742:	bd10      	pop	{r4, pc}
1fff0744:	480f      	ldr	r0, [pc, #60]	; (1fff0784)
1fff0746:	4911      	ldr	r1, [pc, #68]	; (1fff078c)
1fff0748:	7880      	ldrb	r0, [r0, #2]
1fff074a:	5c08      	ldrb	r0, [r1, r0]
1fff074c:	490e      	ldr	r1, [pc, #56]	; (1fff0788)
1fff074e:	7008      	strb	r0, [r1, #0]
1fff0750:	2001      	movs	r0, #1
1fff0752:	4770      	bx	lr
1fff0754:	480b      	ldr	r0, [pc, #44]	; (1fff0784)
1fff0756:	4a0d      	ldr	r2, [pc, #52]	; (1fff078c)
1fff0758:	78c1      	ldrb	r1, [r0, #3]
1fff075a:	7880      	ldrb	r0, [r0, #2]
1fff075c:	5411      	strb	r1, [r2, r0]
1fff075e:	2001      	movs	r0, #1
1fff0760:	4770      	bx	lr
1fff0762:	480a      	ldr	r0, [pc, #40]	; (1fff078c)
1fff0764:	4908      	ldr	r1, [pc, #32]	; (1fff0788)
1fff0766:	1e40      	subs	r0, r0, #1
1fff0768:	7800      	ldrb	r0, [r0, #0]
1fff076a:	7008      	strb	r0, [r1, #0]
1fff076c:	2001      	movs	r0, #1
1fff076e:	4770      	bx	lr
1fff0770:	4804      	ldr	r0, [pc, #16]	; (1fff0784)
1fff0772:	4906      	ldr	r1, [pc, #24]	; (1fff078c)
1fff0774:	7880      	ldrb	r0, [r0, #2]
1fff0776:	1e49      	subs	r1, r1, #1
1fff0778:	7008      	strb	r0, [r1, #0]
1fff077a:	2001      	movs	r0, #1
1fff077c:	4770      	bx	lr
1fff077e: 0000
1fff0780: 1000007c
1fff0784: 10000088
1fff0788: 1000013c
1fff078c: 10000051

<isp_cmd_Twhatisthismagic>:
1fff0790:	b57f      	push	{r0, r1, r2, r3, r4, r5, r6, lr}
1fff0792:	4dff      	ldr	r5, [pc, #1020]	; (1fff0b90)
1fff0b90: 10000248
1fff0794:	2264      	movs	r2, #100	; 0x64
1fff0796:	68a8      	ldr	r0, [r5, #8]  # r0 = [0x10000250]
1fff0798:	4669      	mov	r1, sp
1fff079a:	9b00      	ldr	r3, [sp, #0]
1fff079c:	f001 f955 	bl	1fff1a4a
1fff07a0:	0604      	lsls	r4, r0, #24
1fff07a2:	0e24      	lsrs	r4, r4, #24
1fff07a4:	d11d      	bne.n	1fff07e2
1fff07a6:	6868      	ldr	r0, [r5, #4]
1fff07a8:	2267      	movs	r2, #103	; 0x67
1fff07aa:	a903      	add	r1, sp, #12
1fff07ac:	9b00      	ldr	r3, [sp, #0]
1fff07ae:	f001 f94c 	bl	1fff1a4a
1fff07b2:	0604      	lsls	r4, r0, #24
1fff07b4:	0e24      	lsrs	r4, r4, #24
1fff07b6:	d114      	bne.n	1fff07e2
1fff07b8:	2269      	movs	r2, #105	; 0x69
1fff07ba:	a902      	add	r1, sp, #8
1fff07bc:	2300      	movs	r3, #0
1fff07be:	68e8      	ldr	r0, [r5, #12]
1fff07c0:	f001 f943 	bl	1fff1a4a
1fff07c4:	b2c4      	uxtb	r4, r0
1fff07c6:	9802      	ldr	r0, [sp, #8]
1fff07c8:	2808      	cmp	r0, #8
1fff07ca:	d001      	beq.n	1fff07d0
1fff07cc:	240c      	movs	r4, #12
1fff07ce:	e008      	b.n	1fff07e2
1fff07d0:	2c00      	cmp	r4, #0
1fff07d2:	d106      	bne.n	1fff07e2
1fff07d4:	2269      	movs	r2, #105	; 0x69
1fff07d6:	a901      	add	r1, sp, #4
1fff07d8:	2300      	movs	r3, #0
1fff07da:	6928      	ldr	r0, [r5, #16]
1fff07dc:	f001 f935 	bl	1fff1a4a
1fff07e0:	b2c4      	uxtb	r4, r0
1fff07e2:	220f      	movs	r2, #15
1fff07e4:	4620      	mov	r0, r4
1fff07e6:	6829      	ldr	r1, [r5, #0]
1fff07e8:	f001 facd 	bl	1fff1d86
1fff07ec:	f001 fa10 	bl	1fff1c10
1fff07f0:	48e8      	ldr	r0, [pc, #928]	; (1fff0b94)
1fff07f2:	2c00      	cmp	r4, #0
1fff07f4:	d117      	bne.n	1fff0826
1fff07f6:	e013      	b.n	1fff0820
1fff07f8:	9901      	ldr	r1, [sp, #4]
1fff07fa:	2900      	cmp	r1, #0
1fff07fc:	d005      	beq.n	1fff080a
1fff07fe:	6bc1      	ldr	r1, [r0, #60]	; 0x3c
1fff0800:	05c9      	lsls	r1, r1, #23
1fff0802:	d5fc      	bpl.n	1fff07fe
1fff0804:	6bc1      	ldr	r1, [r0, #60]	; 0x3c
1fff0806:	05c9      	lsls	r1, r1, #23
1fff0808:	d4fc      	bmi.n	1fff0804
1fff080a:	9902      	ldr	r1, [sp, #8]
1fff080c:	2908      	cmp	r1, #8
1fff080e:	d107      	bne.n	1fff0820
1fff0810:	6bc2      	ldr	r2, [r0, #60]	; 0x3c
1fff0812:	9903      	ldr	r1, [sp, #12]
1fff0814:	700a      	strb	r2, [r1, #0]
1fff0816:	1c49      	adds	r1, r1, #1
1fff0818:	9103      	str	r1, [sp, #12]
1fff081a:	9900      	ldr	r1, [sp, #0]
1fff081c:	1e49      	subs	r1, r1, #1
1fff081e:	9100      	str	r1, [sp, #0]
1fff0820:	9900      	ldr	r1, [sp, #0]
1fff0822:	2900      	cmp	r1, #0
1fff0824:	d1e8      	bne.n	1fff07f8
1fff0826:	bd7f      	pop	{r0, r1, r2, r3, r4, r5, r6, pc}

<isp_cmd_Mcompare>:
1fff0828:	b570      	push	{r4, r5, r6, lr}
1fff082a:	4cd9      	ldr	r4, [pc, #868]	; (1fff0b90)
1fff0b90: 10000248
1fff082c:	4eda      	ldr	r6, [pc, #872]	; (1fff0b98)
1fff082e:	2269      	movs	r2, #105	; 0x69
1fff0830:	1d31      	adds	r1, r6, #4
1fff0832:	2300      	movs	r3, #0
1fff0834:	6860      	ldr	r0, [r4, #4]
1fff0836:	f001 f908 	bl	1fff1a4a
1fff083a:	4635      	mov	r5, r6
1fff083c:	3514      	adds	r5, #20
1fff083e:	6028      	str	r0, [r5, #0]
1fff0840:	2800      	cmp	r0, #0
1fff0842:	d119      	bne.n	1fff0878
1fff0844:	4629      	mov	r1, r5
1fff0846:	2269      	movs	r2, #105	; 0x69
1fff0848:	390c      	subs	r1, #12
1fff084a:	2300      	movs	r3, #0
1fff084c:	68a0      	ldr	r0, [r4, #8]
1fff084e:	f001 f8fc 	bl	1fff1a4a
1fff0852:	6028      	str	r0, [r5, #0]
1fff0854:	2800      	cmp	r0, #0
1fff0856:	d10f      	bne.n	1fff0878
1fff0858:	4629      	mov	r1, r5
1fff085a:	2269      	movs	r2, #105	; 0x69
1fff085c:	3908      	subs	r1, #8
1fff085e:	2300      	movs	r3, #0
1fff0860:	68e0      	ldr	r0, [r4, #12]
1fff0862:	f001 f8f2 	bl	1fff1a4a
1fff0866:	6028      	str	r0, [r5, #0]
1fff0868:	2800      	cmp	r0, #0
1fff086a:	d105      	bne.n	1fff0878
1fff086c:	2038      	movs	r0, #56	; 0x38
1fff086e:	6030      	str	r0, [r6, #0]
1fff0870:	4629      	mov	r1, r5
1fff0872:	4630      	mov	r0, r6
1fff0874:	f001 fbbc 	bl	1fff1ff0
1fff0878:	6861      	ldr	r1, [r4, #4]
1fff087a:	220f      	movs	r2, #15
1fff087c:	6828      	ldr	r0, [r5, #0]
1fff087e:	f001 fa82 	bl	1fff1d86
1fff0882:	f001 f9c5 	bl	1fff1c10
1fff0886:	6828      	ldr	r0, [r5, #0]
1fff0888:	280a      	cmp	r0, #10
1fff088a:	d106      	bne.n	1fff089a
1fff088c:	6861      	ldr	r1, [r4, #4]
1fff088e:	220f      	movs	r2, #15
1fff0890:	6868      	ldr	r0, [r5, #4]
1fff0892:	f001 fa78 	bl	1fff1d86
1fff0896:	f001 f9bb 	bl	1fff1c10
1fff089a:	bd70      	pop	{r4, r5, r6, pc}

<isp_cmd_Iblank_check>:
1fff089c:	b570      	push	{r4, r5, r6, lr}
1fff089e:	4cbc      	ldr	r4, [pc, #752]	; (1fff0b90)
1fff0b90: 10000248
1fff08a0:	4ebd      	ldr	r6, [pc, #756]	; (1fff0b98)
1fff08a2:	2269      	movs	r2, #105	; 0x69
1fff08a4:	1d31      	adds	r1, r6, #4
1fff08a6:	2300      	movs	r3, #0
1fff08a8:	6860      	ldr	r0, [r4, #4]
1fff08aa:	f001 f8ce 	bl	1fff1a4a
1fff08ae:	4635      	mov	r5, r6
1fff08b0:	3514      	adds	r5, #20
1fff08b2:	6028      	str	r0, [r5, #0]
1fff08b4:	2800      	cmp	r0, #0
1fff08b6:	d10f      	bne.n	1fff08d8
1fff08b8:	4629      	mov	r1, r5
1fff08ba:	2269      	movs	r2, #105	; 0x69
1fff08bc:	390c      	subs	r1, #12
1fff08be:	2300      	movs	r3, #0
1fff08c0:	68a0      	ldr	r0, [r4, #8]
1fff08c2:	f001 f8c2 	bl	1fff1a4a
1fff08c6:	6028      	str	r0, [r5, #0]
1fff08c8:	2800      	cmp	r0, #0
1fff08ca:	d105      	bne.n	1fff08d8
1fff08cc:	2035      	movs	r0, #53	; 0x35
1fff08ce:	6030      	str	r0, [r6, #0]
1fff08d0:	4629      	mov	r1, r5
1fff08d2:	4630      	mov	r0, r6
1fff08d4:	f001 fb8c 	bl	1fff1ff0
1fff08d8:	6861      	ldr	r1, [r4, #4]
1fff08da:	220f      	movs	r2, #15
1fff08dc:	6828      	ldr	r0, [r5, #0]
1fff08de:	f001 fa52 	bl	1fff1d86
1fff08e2:	f001 f995 	bl	1fff1c10
1fff08e6:	6828      	ldr	r0, [r5, #0]
1fff08e8:	2808      	cmp	r0, #8
1fff08ea:	d11e      	bne.n	1fff092a
1fff08ec:	48ab      	ldr	r0, [pc, #684]	; (1fff0b9c)
1fff08ee:	49ac      	ldr	r1, [pc, #688]	; (1fff0ba0)
1fff08f0:	6800      	ldr	r0, [r0, #0]
1fff08f2:	6809      	ldr	r1, [r1, #0]
1fff08f4:	4288      	cmp	r0, r1
1fff08f6:	d007      	beq.n	1fff0908
1fff08f8:	49aa      	ldr	r1, [pc, #680]	; (1fff0ba4)
1fff08fa:	6809      	ldr	r1, [r1, #0]
1fff08fc:	4288      	cmp	r0, r1
1fff08fe:	d003      	beq.n	1fff0908
1fff0900:	49a9      	ldr	r1, [pc, #676]	; (1fff0ba8)
1fff0902:	6809      	ldr	r1, [r1, #0]
1fff0904:	4288      	cmp	r0, r1
1fff0906:	d102      	bne.n	1fff090e
1fff0908:	2000      	movs	r0, #0
1fff090a:	6068      	str	r0, [r5, #4]
1fff090c:	60a8      	str	r0, [r5, #8]
1fff090e:	6861      	ldr	r1, [r4, #4]
1fff0910:	220f      	movs	r2, #15
1fff0912:	6868      	ldr	r0, [r5, #4]
1fff0914:	f001 fa37 	bl	1fff1d86
1fff0918:	f001 f97a 	bl	1fff1c10
1fff091c:	6861      	ldr	r1, [r4, #4]
1fff091e:	220f      	movs	r2, #15
1fff0920:	68a8      	ldr	r0, [r5, #8]
1fff0922:	f001 fa30 	bl	1fff1d86
1fff0926:	f001 f973 	bl	1fff1c10
1fff092a:	bd70      	pop	{r4, r5, r6, pc}

<isp_cmd_Erase>:
1fff092c:	b5f8      	push	{r3, r4, r5, r6, r7, lr}
1fff092e:	489f      	ldr	r0, [pc, #636]	; (1fff0bac)
1fff0930:	4a97      	ldr	r2, [pc, #604]	; (1fff0b90)
1fff0b90: 10000248
1fff0932:	6801      	ldr	r1, [r0, #0]
1fff0934:	6850      	ldr	r0, [r2, #4]
1fff0936:	2901      	cmp	r1, #1
1fff0938:	d103      	bne.n	1fff0942
1fff093a:	220f      	movs	r2, #15
1fff093c:	4601      	mov	r1, r0
1fff093e:	4610      	mov	r0, r2
1fff0940:	e061      	b.n	1fff0a06
1fff0942:	4c95      	ldr	r4, [pc, #596]	; (1fff0b98)
1fff0944:	2269      	movs	r2, #105	; 0x69
1fff0946:	1d21      	adds	r1, r4, #4
1fff0948:	2300      	movs	r3, #0
1fff094a:	f001 f87e 	bl	1fff1a4a
1fff094e:	4625      	mov	r5, r4
1fff0950:	3514      	adds	r5, #20
1fff0952:	6028      	str	r0, [r5, #0]
1fff0954:	2800      	cmp	r0, #0
1fff0956:	d108      	bne.n	1fff096a
1fff0958:	488d      	ldr	r0, [pc, #564]	; (1fff0b90)
1fff0b90: 10000248
1fff095a:	4621      	mov	r1, r4
1fff095c:	6880      	ldr	r0, [r0, #8]
1fff095e:	2269      	movs	r2, #105	; 0x69
1fff0960:	3108      	adds	r1, #8
1fff0962:	2300      	movs	r3, #0
1fff0964:	f001 f871 	bl	1fff1a4a
1fff0968:	6028      	str	r0, [r5, #0]
1fff096a:	488c      	ldr	r0, [pc, #560]	; (1fff0b9c)
1fff096c:	498c      	ldr	r1, [pc, #560]	; (1fff0ba0)
1fff096e:	6800      	ldr	r0, [r0, #0]
1fff0970:	6809      	ldr	r1, [r1, #0]
1fff0972:	2213      	movs	r2, #19
1fff0974:	4e8e      	ldr	r6, [pc, #568]	; (1fff0bb0)
[4003c000]
1fff0976:	2740      	movs	r7, #64	; 0x40
1fff0978:	4288      	cmp	r0, r1
1fff097a:	d003      	beq.n	1fff0984
1fff097c:	4989      	ldr	r1, [pc, #548]	; (1fff0ba4)
1fff097e:	6809      	ldr	r1, [r1, #0]
1fff0980:	4288      	cmp	r0, r1
1fff0982:	d10c      	bne.n	1fff099e
1fff0984:	6830      	ldr	r0, [r6, #0]
1fff0986:	4338      	orrs	r0, r7
1fff0988:	6030      	str	r0, [r6, #0]
1fff098a:	6860      	ldr	r0, [r4, #4]
1fff098c:	2800      	cmp	r0, #0
1fff098e:	d104      	bne.n	1fff099a
1fff0990:	4988      	ldr	r1, [pc, #544]	; (1fff0bb4)
1fff0992:	68a0      	ldr	r0, [r4, #8]
1fff0994:	6809      	ldr	r1, [r1, #0]
1fff0996:	4288      	cmp	r0, r1
1fff0998:	d00b      	beq.n	1fff09b2
1fff099a:	602a      	str	r2, [r5, #0]
1fff099c:	e009      	b.n	1fff09b2
1fff099e:	4982      	ldr	r1, [pc, #520]	; (1fff0ba8)
1fff09a0:	6809      	ldr	r1, [r1, #0]
1fff09a2:	4288      	cmp	r0, r1
1fff09a4:	d108      	bne.n	1fff09b8
1fff09a6:	6830      	ldr	r0, [r6, #0]
1fff09a8:	4338      	orrs	r0, r7
1fff09aa:	6030      	str	r0, [r6, #0]
1fff09ac:	6860      	ldr	r0, [r4, #4]
1fff09ae:	2800      	cmp	r0, #0
1fff09b0:	d0ee      	beq.n	1fff0990
1fff09b2:	6830      	ldr	r0, [r6, #0]
1fff09b4:	43b8      	bics	r0, r7
1fff09b6:	6030      	str	r0, [r6, #0]
1fff09b8:	6828      	ldr	r0, [r5, #0]
1fff09ba:	2800      	cmp	r0, #0
1fff09bc:	d109      	bne.n	1fff09d2
1fff09be:	2034      	movs	r0, #52	; 0x34
1fff09c0:	6020      	str	r0, [r4, #0]
1fff09c2:	487d      	ldr	r0, [pc, #500]	; (1fff0bb8)
1fff09c4:	4974      	ldr	r1, [pc, #464]	; (1fff0b98)
1fff09c6:	6800      	ldr	r0, [r0, #0]
1fff09c8:	60e0      	str	r0, [r4, #12]
1fff09ca:	3114      	adds	r1, #20
1fff09cc:	4872      	ldr	r0, [pc, #456]	; (1fff0b98)
1fff09ce:	f001 fb0f 	bl	1fff1ff0
1fff09d2:	6830      	ldr	r0, [r6, #0]
1fff09d4:	4338      	orrs	r0, r7
1fff09d6:	6030      	str	r0, [r6, #0]
1fff09d8:	6860      	ldr	r0, [r4, #4]
1fff09da:	2800      	cmp	r0, #0
1fff09dc:	d10c      	bne.n	1fff09f8
1fff09de:	4875      	ldr	r0, [pc, #468]	; (1fff0bb4)
1fff09e0:	68a1      	ldr	r1, [r4, #8]
1fff09e2:	6800      	ldr	r0, [r0, #0]
1fff09e4:	4281      	cmp	r1, r0
1fff09e6:	d107      	bne.n	1fff09f8
1fff09e8:	6830      	ldr	r0, [r6, #0]
1fff09ea:	43b8      	bics	r0, r7
1fff09ec:	6030      	str	r0, [r6, #0]
1fff09ee:	4873      	ldr	r0, [pc, #460]	; (1fff0bbc)
1fff09f0:	496a      	ldr	r1, [pc, #424]	; (1fff0b9c)
1fff09f2:	6800      	ldr	r0, [r0, #0]
1fff09f4:	6800      	ldr	r0, [r0, #0]
1fff09f6:	6008      	str	r0, [r1, #0]
1fff09f8:	6830      	ldr	r0, [r6, #0]
1fff09fa:	43b8      	bics	r0, r7
1fff09fc:	6030      	str	r0, [r6, #0]
1fff09fe:	4864      	ldr	r0, [pc, #400]	; (1fff0b90)
1fff0b90: 10000248
1fff0a00:	220f      	movs	r2, #15
1fff0a02:	6841      	ldr	r1, [r0, #4]
1fff0a04:	6828      	ldr	r0, [r5, #0]
1fff0a06:	f001 f9be 	bl	1fff1d86
1fff0a0a:	f001 f901 	bl	1fff1c10
1fff0a0e:	bdf8      	pop	{r3, r4, r5, r6, r7, pc}

<isp_cmd_Copy>:
1fff0a10:	b570      	push	{r4, r5, r6, lr}
1fff0a12:	4866      	ldr	r0, [pc, #408]	; (1fff0bac)
1fff0a14:	4e5e      	ldr	r6, [pc, #376]	; (1fff0b90)
1fff0b90: 10000248
1fff0a16:	6801      	ldr	r1, [r0, #0]
1fff0a18:	6870      	ldr	r0, [r6, #4]
1fff0a1a:	2901      	cmp	r1, #1
1fff0a1c:	d103      	bne.n	1fff0a26
1fff0a1e:	220f      	movs	r2, #15
1fff0a20:	4601      	mov	r1, r0
1fff0a22:	4610      	mov	r0, r2
1fff0a24:	e041      	b.n	1fff0aaa
1fff0a26:	4d5c      	ldr	r5, [pc, #368]	; (1fff0b98)
1fff0a28:	2269      	movs	r2, #105	; 0x69
1fff0a2a:	1d29      	adds	r1, r5, #4
1fff0a2c:	2300      	movs	r3, #0
1fff0a2e:	f001 f80c 	bl	1fff1a4a
1fff0a32:	462c      	mov	r4, r5
1fff0a34:	3414      	adds	r4, #20
1fff0a36:	6020      	str	r0, [r4, #0]
1fff0a38:	2800      	cmp	r0, #0
1fff0a3a:	d111      	bne.n	1fff0a60
1fff0a3c:	4621      	mov	r1, r4
1fff0a3e:	2269      	movs	r2, #105	; 0x69
1fff0a40:	390c      	subs	r1, #12
1fff0a42:	2300      	movs	r3, #0
1fff0a44:	68b0      	ldr	r0, [r6, #8]
1fff0a46:	f001 f800 	bl	1fff1a4a
1fff0a4a:	6020      	str	r0, [r4, #0]
1fff0a4c:	2800      	cmp	r0, #0
1fff0a4e:	d107      	bne.n	1fff0a60
1fff0a50:	4621      	mov	r1, r4
1fff0a52:	2269      	movs	r2, #105	; 0x69
1fff0a54:	3908      	subs	r1, #8
1fff0a56:	2300      	movs	r3, #0
1fff0a58:	68f0      	ldr	r0, [r6, #12]
1fff0a5a:	f000 fff6 	bl	1fff1a4a
1fff0a5e:	6020      	str	r0, [r4, #0]
1fff0a60:	484e      	ldr	r0, [pc, #312]	; (1fff0b9c)
1fff0a62:	4951      	ldr	r1, [pc, #324]	; (1fff0ba8)
1fff0a64:	6800      	ldr	r0, [r0, #0]
1fff0a66:	6809      	ldr	r1, [r1, #0]
1fff0a68:	4288      	cmp	r0, r1
1fff0a6a:	d10e      	bne.n	1fff0a8a

[4003c000] |= 0x40
1fff0a6c:	4850      	ldr	r0, [pc, #320]	; (1fff0bb0)
1fff0a6e:	6801      	ldr	r1, [r0, #0]
1fff0a70:	2240      	movs	r2, #64	; 0x40
1fff0a72:	4311      	orrs	r1, r2
1fff0a74:	6001      	str	r1, [r0, #0]

1fff0a76:	4b52      	ldr	r3, [pc, #328]	; (1fff0bc0)
1fff0a78:	6869      	ldr	r1, [r5, #4]
1fff0a7a:	681b      	ldr	r3, [r3, #0]
1fff0a7c:	4299      	cmp	r1, r3
1fff0a7e:	d201      	bcs.n	1fff0a84
1fff0a80:	2113      	movs	r1, #19
1fff0a82:	6021      	str	r1, [r4, #0]
1fff0a84:	6801      	ldr	r1, [r0, #0]
1fff0a86:	4391      	bics	r1, r2
1fff0a88:	6001      	str	r1, [r0, #0]
1fff0a8a:	6820      	ldr	r0, [r4, #0]
1fff0a8c:	2800      	cmp	r0, #0
1fff0a8e:	d109      	bne.n	1fff0aa4
1fff0a90:	2033      	movs	r0, #51	; 0x33
1fff0a92:	6028      	str	r0, [r5, #0]
1fff0a94:	4848      	ldr	r0, [pc, #288]	; (1fff0bb8)
1fff0a96:	4940      	ldr	r1, [pc, #256]	; (1fff0b98)
1fff0a98:	6800      	ldr	r0, [r0, #0]
1fff0a9a:	6128      	str	r0, [r5, #16]
1fff0a9c:	3114      	adds	r1, #20
1fff0a9e:	483e      	ldr	r0, [pc, #248]	; (1fff0b98)
1fff0aa0:	f001 faa6 	bl	1fff1ff0
1fff0aa4:	6871      	ldr	r1, [r6, #4]
1fff0aa6:	220f      	movs	r2, #15
1fff0aa8:	6820      	ldr	r0, [r4, #0]
1fff0aaa:	f001 f96c 	bl	1fff1d86
1fff0aae:	f001 f8af 	bl	1fff1c10
1fff0ab2:	bd70      	pop	{r4, r5, r6, pc}

<isp_cmd_Prepare>:
1fff0ab4:	b570      	push	{r4, r5, r6, lr}
1fff0ab6:	4c36      	ldr	r4, [pc, #216]	; (1fff0b90)
1fff0b90: 10000248
1fff0ab8:	4e37      	ldr	r6, [pc, #220]	; (1fff0b98)
1fff0aba:	2269      	movs	r2, #105	; 0x69
1fff0abc:	1d31      	adds	r1, r6, #4
1fff0abe:	2300      	movs	r3, #0
1fff0ac0:	6860      	ldr	r0, [r4, #4]
1fff0ac2:	f000 ffc2 	bl	1fff1a4a
1fff0ac6:	4635      	mov	r5, r6
1fff0ac8:	3514      	adds	r5, #20
1fff0aca:	6028      	str	r0, [r5, #0]
1fff0acc:	2800      	cmp	r0, #0
1fff0ace:	d10f      	bne.n	1fff0af0
1fff0ad0:	4629      	mov	r1, r5
1fff0ad2:	2269      	movs	r2, #105	; 0x69
1fff0ad4:	390c      	subs	r1, #12
1fff0ad6:	2300      	movs	r3, #0
1fff0ad8:	68a0      	ldr	r0, [r4, #8]
1fff0ada:	f000 ffb6 	bl	1fff1a4a
1fff0ade:	6028      	str	r0, [r5, #0]
1fff0ae0:	2800      	cmp	r0, #0
1fff0ae2:	d105      	bne.n	1fff0af0
1fff0ae4:	2032      	movs	r0, #50	; 0x32
1fff0ae6:	6030      	str	r0, [r6, #0]
1fff0ae8:	4629      	mov	r1, r5
1fff0aea:	4630      	mov	r0, r6
1fff0aec:	f001 fa80 	bl	1fff1ff0
1fff0af0:	6861      	ldr	r1, [r4, #4]
1fff0af2:	220f      	movs	r2, #15
1fff0af4:	6828      	ldr	r0, [r5, #0]
1fff0af6:	f001 f946 	bl	1fff1d86
1fff0afa:	f001 f889 	bl	1fff1c10
1fff0afe:	bd70      	pop	{r4, r5, r6, pc}

<isp_cmd_Aecho>:
1fff0b00:	b538      	push	{r3, r4, r5, lr}
1fff0b02:	4d23      	ldr	r5, [pc, #140]	; (1fff0b90)
1fff0b90: 10000248
1fff0b04:	2269      	movs	r2, #105	; 0x69
1fff0b06:	4669      	mov	r1, sp
1fff0b08:	2300      	movs	r3, #0
1fff0b0a:	6868      	ldr	r0, [r5, #4]
1fff0b0c:	f000 ff9d 	bl	1fff1a4a
1fff0b10:	b2c4      	uxtb	r4, r0
1fff0b12:	220f      	movs	r2, #15
1fff0b14:	4620      	mov	r0, r4
1fff0b16:	6869      	ldr	r1, [r5, #4]
1fff0b18:	f001 f935 	bl	1fff1d86
1fff0b1c:	f001 f878 	bl	1fff1c10
1fff0b20:	2c00      	cmp	r4, #0
1fff0b22:	d105      	bne.n	1fff0b30
1fff0b24:	9800      	ldr	r0, [sp, #0]
1fff0b26:	2800      	cmp	r0, #0
1fff0b28:	d000      	beq.n	1fff0b2c
1fff0b2a:	2001      	movs	r0, #1
1fff0b2c:	f001 f8cb 	bl	1fff1cc6
1fff0b30:	bd38      	pop	{r3, r4, r5, pc}

<isp_cmd_Baudrate>:
1fff0b32:	b57c      	push	{r2, r3, r4, r5, r6, lr}
1fff0b34:	4d16      	ldr	r5, [pc, #88]	; (1fff0b90)
1fff0b90: 10000248
1fff0b36:	2269      	movs	r2, #105	; 0x69
1fff0b38:	a901      	add	r1, sp, #4
1fff0b3a:	2300      	movs	r3, #0
1fff0b3c:	6868      	ldr	r0, [r5, #4]
1fff0b3e:	f000 ff84 	bl	1fff1a4a
1fff0b42:	2269      	movs	r2, #105	; 0x69
1fff0b44:	4669      	mov	r1, sp
1fff0b46:	2300      	movs	r3, #0
1fff0b48:	68a8      	ldr	r0, [r5, #8]
1fff0b4a:	f000 ff7e 	bl	1fff1a4a
1fff0b4e:	0604      	lsls	r4, r0, #24
1fff0b50:	0e24      	lsrs	r4, r4, #24
1fff0b52:	d11b      	bne.n	1fff0b8c
1fff0b54:	214b      	movs	r1, #75	; 0x4b
1fff0b56:	9801      	ldr	r0, [sp, #4]
1fff0b58:	01c9      	lsls	r1, r1, #7
1fff0b5a:	4288      	cmp	r0, r1
1fff0b5c:	d010      	beq.n	1fff0b80
1fff0b5e:	0049      	lsls	r1, r1, #1
1fff0b60:	4288      	cmp	r0, r1
1fff0b62:	d00d      	beq.n	1fff0b80
1fff0b64:	0049      	lsls	r1, r1, #1
1fff0b66:	4288      	cmp	r0, r1
1fff0b68:	d00a      	beq.n	1fff0b80
1fff0b6a:	21e1      	movs	r1, #225	; 0xe1
1fff0b6c:	0209      	lsls	r1, r1, #8
1fff0b6e:	4288      	cmp	r0, r1
1fff0b70:	d006      	beq.n	1fff0b80
1fff0b72:	0049      	lsls	r1, r1, #1
1fff0b74:	4288      	cmp	r0, r1
1fff0b76:	d003      	beq.n	1fff0b80
1fff0b78:	0049      	lsls	r1, r1, #1
1fff0b7a:	4288      	cmp	r0, r1
1fff0b7c:	d000      	beq.n	1fff0b80
1fff0b7e:	2411      	movs	r4, #17
1fff0b80:	9800      	ldr	r0, [sp, #0]
1fff0b82:	2801      	cmp	r0, #1
1fff0b84:	d002      	beq.n	1fff0b8c
1fff0b86:	2802      	cmp	r0, #2
1fff0b88:	d000      	beq.n	1fff0b8c
1fff0b8a:	2412      	movs	r4, #18
1fff0b8c:	220f      	movs	r2, #15
1fff0b8e:	e019      	b.n	1fff0bc4

1fff0b90: 10000248
1fff0b94: 50023fc0  # GPIO2
1fff0b98: 1000018c
1fff0b9c: 10000184
1fff0ba0: 1fff0190
1fff0ba4: 1fff0194
1fff0ba8: 1fff0198
1fff0bac: 10000180
1fff0bb0: 4003c000  # flash
1fff0bb4: 00000440
1fff0bb8: 1000017c
1fff0bbc: 1fff018c
1fff0bc0: 00000520

1fff0bc4:	4620      	mov	r0, r4
1fff0bc6:	6869      	ldr	r1, [r5, #4]
1fff0bc8:	f001 f8dd 	bl	1fff1d86
1fff0bcc:	f001 f820 	bl	1fff1c10
1fff0bd0:	2c00      	cmp	r4, #0
1fff0bd2:	d105      	bne.n	1fff0be0
1fff0bd4:	48e5      	ldr	r0, [pc, #916]	; (1fff0f6c)
1fff0f6c: 1000017c
1fff0bd6:	9900      	ldr	r1, [sp, #0]
1fff0bd8:	6802      	ldr	r2, [r0, #0]	# r2 = [1000017c]
1fff0bda:	9801      	ldr	r0, [sp, #4]
1fff0bdc:	f000 ffde 	bl	1fff1b9c
1fff0be0:	bd7c      	pop	{r2, r3, r4, r5, r6, pc}

<isp_cmd_Unlock>:
1fff0be2:	b538      	push	{r3, r4, r5, lr}
1fff0be4:	4ce2      	ldr	r4, [pc, #904]	; (1fff0f70)
1fff0f70: 10000248
1fff0be6:	2269      	movs	r2, #105	; 0x69
1fff0be8:	4669      	mov	r1, sp
1fff0bea:	2300      	movs	r3, #0
1fff0bec:	6860      	ldr	r0, [r4, #4]
1fff0bee:	f000 ff2c 	bl	1fff1a4a
1fff0bf2:	0600      	lsls	r0, r0, #24
1fff0bf4:	0e00      	lsrs	r0, r0, #24
1fff0bf6:	d108      	bne.n	1fff0c0a
1fff0bf8:	4ade      	ldr	r2, [pc, #888]	; (1fff0f74)
1fff0bfa:	9900      	ldr	r1, [sp, #0]
1fff0bfc:	4291      	cmp	r1, r2
1fff0bfe:	d103      	bne.n	1fff0c08
1fff0c00:	4add      	ldr	r2, [pc, #884]	; (1fff0f78)
1fff0f78: 10000180
1fff0c02:	2100      	movs	r1, #0
1fff0c04:	6011      	str	r1, [r2, #0]
1fff0c06:	e000      	b.n	1fff0c0a
1fff0c08:	2010      	movs	r0, #16
1fff0c0a:	220f      	movs	r2, #15
1fff0c0c:	6861      	ldr	r1, [r4, #4]
1fff0c0e:	f001 f8ba 	bl	1fff1d86
1fff0c12:	f000 fffd 	bl	1fff1c10
1fff0c16:	bd38      	pop	{r3, r4, r5, pc}

<isp_cmd_Go>:
1fff0c18:	b538      	push	{r3, r4, r5, lr}
1fff0c1a:	48d7      	ldr	r0, [pc, #860]	; (1fff0f78)
1fff0c1c:	4dd4      	ldr	r5, [pc, #848]	; (1fff0f70)
1fff0f78: 10000180
1fff0f70: 10000248
1fff0c1e:	6800      	ldr	r0, [r0, #0]
1fff0c20:	2800      	cmp	r0, #0
1fff0c22:	d109      	bne.n	1fff0c38
1fff0c24:	2400      	movs	r4, #0
1fff0c26:	48d5      	ldr	r0, [pc, #852]	; (1fff0f7c)
1fff0c28:	6869      	ldr	r1, [r5, #4]
1fff0c2a:	f001 f855 	bl	1fff1cd8
1fff0c2e:	2800      	cmp	r0, #0
1fff0c30:	d104      	bne.n	1fff0c3c
1fff0c32:	48d3      	ldr	r0, [pc, #844]	; (1fff0f80)
1fff0c34:	9000      	str	r0, [sp, #0]
1fff0c36:	e00a      	b.n	1fff0c4e
1fff0c38:	240f      	movs	r4, #15
1fff0c3a:	e00f      	b.n	1fff0c5c
1fff0c3c:	2266      	movs	r2, #102	; 0x66
1fff0c3e:	4669      	mov	r1, sp
1fff0c40:	2300      	movs	r3, #0
1fff0c42:	6868      	ldr	r0, [r5, #4]
1fff0c44:	f000 ff01 	bl	1fff1a4a
1fff0c48:	0604      	lsls	r4, r0, #24
1fff0c4a:	0e24      	lsrs	r4, r4, #24
1fff0c4c:	d106      	bne.n	1fff0c5c
1fff0c4e:	68a8      	ldr	r0, [r5, #8]
1fff0c50:	7800      	ldrb	r0, [r0, #0]
1fff0c52:	2854      	cmp	r0, #84	; 0x54
1fff0c54:	d00e      	beq.n	1fff0c74
1fff0c56:	2841      	cmp	r0, #65	; 0x41
1fff0c58:	d000      	beq.n	1fff0c5c
1fff0c5a:	240c      	movs	r4, #12
1fff0c5c:	220f      	movs	r2, #15
1fff0c5e:	4620      	mov	r0, r4
1fff0c60:	6869      	ldr	r1, [r5, #4]
1fff0c62:	f001 f890 	bl	1fff1d86
1fff0c66:	f000 ffd3 	bl	1fff1c10
1fff0c6a:	2c00      	cmp	r4, #0
1fff0c6c:	d101      	bne.n	1fff0c72
1fff0c6e:	9800      	ldr	r0, [sp, #0]
1fff0c70:	4780      	blx	r0
1fff0c72:	bd38      	pop	{r3, r4, r5, pc}
1fff0c74:	9800      	ldr	r0, [sp, #0]
1fff0c76:	2101      	movs	r1, #1
1fff0c78:	4308      	orrs	r0, r1
1fff0c7a:	9000      	str	r0, [sp, #0]
1fff0c7c:	e7ee      	b.n	1fff0c5c

<isp_cmd_Read>:
1fff0c7e:	b5fe      	push	{r1, r2, r3, r4, r5, r6, r7, lr}
1fff0c80:	4dbb      	ldr	r5, [pc, #748]	; (1fff0f70)
1fff0c82:	2264      	movs	r2, #100	; 0x64
1fff0c84:	a901      	add	r1, sp, #4
1fff0c86:	2300      	movs	r3, #0
1fff0c88:	68a8      	ldr	r0, [r5, #8]
1fff0c8a:	f000 fede 	bl	1fff1a4a
1fff0c8e:	0604      	lsls	r4, r0, #24
1fff0c90:	0e24      	lsrs	r4, r4, #24
1fff0c92:	d106      	bne.n	1fff0ca2
1fff0c94:	6868      	ldr	r0, [r5, #4]
1fff0c96:	2266      	movs	r2, #102	; 0x66
1fff0c98:	a902      	add	r1, sp, #8
1fff0c9a:	9b01      	ldr	r3, [sp, #4]
1fff0c9c:	f000 fed5 	bl	1fff1a4a
1fff0ca0:	b2c4      	uxtb	r4, r0
1fff0ca2:	220f      	movs	r2, #15
1fff0ca4:	4620      	mov	r0, r4
1fff0ca6:	6829      	ldr	r1, [r5, #0]
1fff0ca8:	f001 f86d 	bl	1fff1d86
1fff0cac:	f000 ffb0 	bl	1fff1c10
1fff0cb0:	2c00      	cmp	r4, #0
1fff0cb2:	d147      	bne.n	1fff0d44
1fff0cb4:	2101      	movs	r1, #1
1fff0cb6:	9802      	ldr	r0, [sp, #8]
1fff0cb8:	03c9      	lsls	r1, r1, #15
1fff0cba:	4288      	cmp	r0, r1
1fff0cbc:	d201      	bcs.n	1fff0cc2
1fff0cbe:	1840      	adds	r0, r0, r1
1fff0cc0:	9002      	str	r0, [sp, #8]
1fff0cc2:	4607      	mov	r7, r0
1fff0cc4:	2600      	movs	r6, #0
1fff0cc6:	9801      	ldr	r0, [sp, #4]
1fff0cc8:	4634      	mov	r4, r6
1fff0cca:	9000      	str	r0, [sp, #0]
1fff0ccc:	e037      	b.n	1fff0d3e
1fff0cce:	2d2d      	cmp	r5, #45	; 0x2d
1fff0cd0:	dd00      	ble.n	1fff0cd4
1fff0cd2:	252d      	movs	r5, #45	; 0x2d
1fff0cd4:	462a      	mov	r2, r5
1fff0cd6:	49ab      	ldr	r1, [pc, #684]	; (1fff0f84)
1fff0cd8:	9802      	ldr	r0, [sp, #8]
1fff0cda:	f001 f8d8 	bl	1fff1e8e
1fff0cde:	1986      	adds	r6, r0, r6
1fff0ce0:	48a8      	ldr	r0, [pc, #672]	; (1fff0f84)
1fff0ce2:	f000 ff95 	bl	1fff1c10
1fff0ce6:	2800      	cmp	r0, #0
1fff0ce8:	d12c      	bne.n	1fff0d44
1fff0cea:	9802      	ldr	r0, [sp, #8]
1fff0cec:	1c64      	adds	r4, r4, #1
1fff0cee:	1940      	adds	r0, r0, r5
1fff0cf0:	9002      	str	r0, [sp, #8]
1fff0cf2:	9801      	ldr	r0, [sp, #4]
1fff0cf4:	1b40      	subs	r0, r0, r5
1fff0cf6:	9001      	str	r0, [sp, #4]
1fff0cf8:	2c14      	cmp	r4, #20
1fff0cfa:	d001      	beq.n	1fff0d00
1fff0cfc:	2800      	cmp	r0, #0
1fff0cfe:	d11e      	bne.n	1fff0d3e
1fff0d00:	220f      	movs	r2, #15
1fff0d02:	49a0      	ldr	r1, [pc, #640]	; (1fff0f84)
1fff0d04:	4630      	mov	r0, r6
1fff0d06:	f001 f83e 	bl	1fff1d86
1fff0d0a:	f000 ff81 	bl	1fff1c10
1fff0d0e:	2200      	movs	r2, #0
1fff0d10:	2146      	movs	r1, #70	; 0x46
1fff0d12:	489c      	ldr	r0, [pc, #624]	; (1fff0f84)
1fff0d14:	f000 ffaf 	bl	1fff1c76
1fff0d18:	0600      	lsls	r0, r0, #24
1fff0d1a:	0e00      	lsrs	r0, r0, #24
1fff0d1c:	d112      	bne.n	1fff0d44
1fff0d1e:	4997      	ldr	r1, [pc, #604]	; (1fff0f7c)
1fff0d20:	4898      	ldr	r0, [pc, #608]	; (1fff0f84)
1fff0d22:	1ec9      	subs	r1, r1, #3
1fff0d24:	f000 ffd8 	bl	1fff1cd8
1fff0d28:	2800      	cmp	r0, #0
1fff0d2a:	d103      	bne.n	1fff0d34
1fff0d2c:	9801      	ldr	r0, [sp, #4]
1fff0d2e:	9000      	str	r0, [sp, #0]
1fff0d30:	9f02      	ldr	r7, [sp, #8]
1fff0d32:	e002      	b.n	1fff0d3a
1fff0d34:	9800      	ldr	r0, [sp, #0]
1fff0d36:	9702      	str	r7, [sp, #8]
1fff0d38:	9001      	str	r0, [sp, #4]
1fff0d3a:	2400      	movs	r4, #0
1fff0d3c:	4626      	mov	r6, r4
1fff0d3e:	9d01      	ldr	r5, [sp, #4]
1fff0d40:	2d00      	cmp	r5, #0
1fff0d42:	dcc4      	bgt.n	1fff0cce
1fff0d44:	bdfe      	pop	{r1, r2, r3, r4, r5, r6, r7, pc}

<isp_cmd_Write>:
1fff0d46:	b5f0      	push	{r4, r5, r6, r7, lr}
1fff0d48:	b085      	sub	sp, #20
1fff0d4a:	4d89      	ldr	r5, [pc, #548]	; (1fff0f70)
1fff0d4c:	2264      	movs	r2, #100	; 0x64
1fff0d4e:	68a8      	ldr	r0, [r5, #8]
1fff0d50:	a902      	add	r1, sp, #8
1fff0d52:	9b02      	ldr	r3, [sp, #8]
1fff0d54:	f000 fe79 	bl	1fff1a4a
1fff0d58:	0604      	lsls	r4, r0, #24
1fff0d5a:	0e24      	lsrs	r4, r4, #24
1fff0d5c:	d10d      	bne.n	1fff0d7a
1fff0d5e:	6868      	ldr	r0, [r5, #4]
1fff0d60:	2267      	movs	r2, #103	; 0x67
1fff0d62:	a904      	add	r1, sp, #16
1fff0d64:	9b02      	ldr	r3, [sp, #8]
1fff0d66:	f000 fe70 	bl	1fff1a4a
1fff0d6a:	b2c4      	uxtb	r4, r0
1fff0d6c:	2c04      	cmp	r4, #4
1fff0d6e:	d101      	bne.n	1fff0d74
1fff0d70:	240e      	movs	r4, #14
1fff0d72:	e002      	b.n	1fff0d7a
1fff0d74:	2c02      	cmp	r4, #2
1fff0d76:	d100      	bne.n	1fff0d7a
1fff0d78:	240d      	movs	r4, #13
1fff0d7a:	4883      	ldr	r0, [pc, #524]	; (1fff0f88)
^[4003c000] |= 0x40
1fff0d7c:	6802      	ldr	r2, [r0, #0]
1fff0d7e:	2140      	movs	r1, #64	; 0x40
1fff0d80:	430a      	orrs	r2, r1
1fff0d82:	6002      	str	r2, [r0, #0]
1fff0d84:	4a81      	ldr	r2, [pc, #516]	; (1fff0f8c)
1fff0d86:	4b82      	ldr	r3, [pc, #520]	; (1fff0f90)
1fff0d88:	6812      	ldr	r2, [r2, #0]
1fff0d8a:	681b      	ldr	r3, [r3, #0]
1fff0d8c:	429a      	cmp	r2, r3
1fff0d8e:	d108      	bne.n	1fff0da2
1fff0d90:	4a80      	ldr	r2, [pc, #512]	; (1fff0f94)
1fff0d92:	9b04      	ldr	r3, [sp, #16]
1fff0d94:	6812      	ldr	r2, [r2, #0]
1fff0d96:	32ff      	adds	r2, #255	; 0xff
1fff0d98:	32ff      	adds	r2, #255	; 0xff
1fff0d9a:	3202      	adds	r2, #2
1fff0d9c:	4293      	cmp	r3, r2
1fff0d9e:	d200      	bcs.n	1fff0da2
1fff0da0:	2413      	movs	r4, #19
1fff0da2:	6802      	ldr	r2, [r0, #0]
1fff0da4:	438a      	bics	r2, r1
1fff0da6:	6002      	str	r2, [r0, #0]
1fff0da8:	220f      	movs	r2, #15
1fff0daa:	4620      	mov	r0, r4
1fff0dac:	6829      	ldr	r1, [r5, #0]
1fff0dae:	f000 ffea 	bl	1fff1d86
1fff0db2:	f000 ff2d 	bl	1fff1c10
1fff0db6:	2c00      	cmp	r4, #0
1fff0db8:	d144      	bne.n	1fff0e44
1fff0dba:	4625      	mov	r5, r4
1fff0dbc:	9f02      	ldr	r7, [sp, #8]
1fff0dbe:	9e04      	ldr	r6, [sp, #16]
1fff0dc0:	e03d      	b.n	1fff0e3e
1fff0dc2:	466a      	mov	r2, sp
1fff0dc4:	2146      	movs	r1, #70	; 0x46
1fff0dc6:	486f      	ldr	r0, [pc, #444]	; (1fff0f84)
1fff0dc8:	f000 ff55 	bl	1fff1c76
1fff0dcc:	2800      	cmp	r0, #0
1fff0dce:	d139      	bne.n	1fff0e44
1fff0dd0:	9800      	ldr	r0, [sp, #0]
1fff0dd2:	2800      	cmp	r0, #0
1fff0dd4:	d00d      	beq.n	1fff0df2
1fff0dd6:	1c6d      	adds	r5, r5, #1
1fff0dd8:	aa01      	add	r2, sp, #4
1fff0dda:	486a      	ldr	r0, [pc, #424]	; (1fff0f84)
1fff0ddc:	9904      	ldr	r1, [sp, #16]
1fff0dde:	f000 fff5 	bl	1fff1dcc
1fff0de2:	1904      	adds	r4, r0, r4
1fff0de4:	9904      	ldr	r1, [sp, #16]
1fff0de6:	9801      	ldr	r0, [sp, #4]
1fff0de8:	1809      	adds	r1, r1, r0
1fff0dea:	9104      	str	r1, [sp, #16]
1fff0dec:	9902      	ldr	r1, [sp, #8]
1fff0dee:	1a08      	subs	r0, r1, r0
1fff0df0:	9002      	str	r0, [sp, #8]
1fff0df2:	2d14      	cmp	r5, #20
1fff0df4:	d002      	beq.n	1fff0dfc
1fff0df6:	9802      	ldr	r0, [sp, #8]
1fff0df8:	2800      	cmp	r0, #0
1fff0dfa:	d120      	bne.n	1fff0e3e
1fff0dfc:	2000      	movs	r0, #0
1fff0dfe:	9000      	str	r0, [sp, #0]
1fff0e00:	466a      	mov	r2, sp
1fff0e02:	2146      	movs	r1, #70	; 0x46
1fff0e04:	485f      	ldr	r0, [pc, #380]	; (1fff0f84)
1fff0e06:	f000 ff36 	bl	1fff1c76
1fff0e0a:	9900      	ldr	r1, [sp, #0]
1fff0e0c:	b2c0      	uxtb	r0, r0
1fff0e0e:	2900      	cmp	r1, #0
1fff0e10:	d0f6      	beq.n	1fff0e00
1fff0e12:	2800      	cmp	r0, #0
1fff0e14:	d116      	bne.n	1fff0e44
1fff0e16:	a903      	add	r1, sp, #12
1fff0e18:	485a      	ldr	r0, [pc, #360]	; (1fff0f84)
1fff0e1a:	f000 ff9f 	bl	1fff1d5c
1fff0e1e:	9803      	ldr	r0, [sp, #12]
1fff0e20:	4284      	cmp	r4, r0
1fff0e22:	d104      	bne.n	1fff0e2e
1fff0e24:	4855      	ldr	r0, [pc, #340]	; (1fff0f7c)
1fff0e26:	9f02      	ldr	r7, [sp, #8]
1fff0e28:	1ec0      	subs	r0, r0, #3
1fff0e2a:	9e04      	ldr	r6, [sp, #16]
1fff0e2c:	e003      	b.n	1fff0e36
1fff0e2e:	4853      	ldr	r0, [pc, #332]	; (1fff0f7c)
1fff0e30:	9702      	str	r7, [sp, #8]
1fff0e32:	1d40      	adds	r0, r0, #5
1fff0e34:	9604      	str	r6, [sp, #16]
1fff0e36:	f000 feeb 	bl	1fff1c10
1fff0e3a:	2500      	movs	r5, #0
1fff0e3c:	462c      	mov	r4, r5
1fff0e3e:	9802      	ldr	r0, [sp, #8]
1fff0e40:	2800      	cmp	r0, #0
1fff0e42:	dcbe      	bgt.n	1fff0dc2
1fff0e44:	b005      	add	sp, #20
1fff0e46:	bdf0      	pop	{r4, r5, r6, r7, pc}

<isp_cmd_jump_table>:
1fff0e48:	b5f8      	push	{r3, r4, r5, r6, r7, lr}
1fff0e4a:	4e49      	ldr	r6, [pc, #292]	; (1fff0f70)
1fff0e4c:	4d4e      	ldr	r5, [pc, #312]	; (1fff0f88)
1fff0e4e:	6830      	ldr	r0, [r6, #0]
1fff0e50:	2740      	movs	r7, #64	; 0x40
1fff0e52:	7803      	ldrb	r3, [r0, #0]
1fff0e54:	4630      	mov	r0, r6
1fff0e56:	3b41      	subs	r3, #65	; 0x41	# remove 'A' from
command?
1fff0e58:	6841      	ldr	r1, [r0, #4]
1fff0e5a:	f001 ff57 	bl	1fff2d0c  # cmd_jmp_table()
1fff0e5e: 17	# num cmds 23
1fff0e5f: 1c	# cmd 0 A/echo
1fff0e60: 19    # cmd 1 B/baud
1fff0e61: 75	# cmd 2 C/copy
1fff0e62: 84	# cmd_invalid2
1fff0e63: 78	# cmd 4 E/erase
1fff0e64: 84	# cmd_invalid2
1fff0e65: 13    # cmd 6 G/go
1fff0e66: 84	# cmd_invalid2
1fff0e67: 7b	# cmd 8 I/blank
1fff0e68: 1f	# cmd 9 J/read part id
1fff0e69: 54	# cmd 10 K/read boot version
1fff0e6a: 84	# cmd_invalid2
1fff0e6b: 7e	# cmd 12 M/compare
1fff0e6c: 29	# cmd 13 N/readuid
1fff0e6d: 84	# cmd_invalid2
1fff0e6e: 72	# cmd 15 P/prepare
1fff0e6f: 84	# cmd_invalid2
1fff0e70: 10	# cmd 17 R/read
1fff0e71: 84	# cmd_invalid2
1fff0e72: 81	# cmd 19 T/??
1fff0e73: 16	# cmd 20 U/unlock
1fff0e74: 84	# cmd_invalid2
1fff0e75: 0d	# cmd 22 W/write
1fff0e76: 84	# cmd_invalid2
1fff0e77: 00

1fff0e78:	f7ff ff65 	bl	1fff0d46  # 0d cmd 22
1fff0e7c:	bdf8      	pop	{r3, r4, r5, r6, r7, pc}
1fff0e7e:	f7ff fefe 	bl	1fff0c7e  # 10 cmd 17
1fff0e82:	bdf8      	pop	{r3, r4, r5, r6, r7, pc}
1fff0e84:	f7ff fec8 	bl	1fff0c18  # 13 cmd 6
1fff0e88:	bdf8      	pop	{r3, r4, r5, r6, r7, pc}
1fff0e8a:	f7ff feaa 	bl	1fff0be2  # 16 cmd 20
1fff0e8e:	bdf8      	pop	{r3, r4, r5, r6, r7, pc}
1fff0e90:	f7ff fe4f 	bl	1fff0b32  # 19 cmd 1
1fff0e94:	bdf8      	pop	{r3, r4, r5, r6, r7, pc}
1fff0e96:	f7ff fe33 	bl	1fff0b00  # 1c cmd 0
1fff0e9a:	bdf8      	pop	{r3, r4, r5, r6, r7, pc}

1fff0e9c:	220f      	movs	r2, #15  # 1f cmd 9 /
isp_cmd_Jread_part_id
1fff0e9e:	2000      	movs	r0, #0
1fff0ea0:	f000 ff71 	bl	1fff1d86
1fff0ea4:	f000 feb4 	bl	1fff1c10
1fff0ea8:	483b      	ldr	r0, [pc, #236]	; (1fff0f98)
1fff0eaa:	6871      	ldr	r1, [r6, #4]
1fff0eac:	6b40      	ldr	r0, [r0, #52]	; 0x34
1fff0eae:	e042      	b.n	1fff0f36

1fff0eb0:	6828      	ldr	r0, [r5, #0]  # cmd 13 /
isp_cmd_Nreaduid
1fff0eb2:	4338      	orrs	r0, r7
1fff0eb4:	6028      	str	r0, [r5, #0]
1fff0eb6:	4839      	ldr	r0, [pc, #228]	; (1fff0f9c)
1fff0eb8:	220f      	movs	r2, #15
1fff0eba:	6804      	ldr	r4, [r0, #0]
1fff0ebc:	2000      	movs	r0, #0
1fff0ebe:	f000 ff62 	bl	1fff1d86
1fff0ec2:	f000 fea5 	bl	1fff1c10
1fff0ec6:	6871      	ldr	r1, [r6, #4]
1fff0ec8:	220f      	movs	r2, #15
1fff0eca:	6820      	ldr	r0, [r4, #0]
1fff0ecc:	f000 ff5b 	bl	1fff1d86
1fff0ed0:	f000 fe9e 	bl	1fff1c10
1fff0ed4:	6871      	ldr	r1, [r6, #4]
1fff0ed6:	220f      	movs	r2, #15
1fff0ed8:	6860      	ldr	r0, [r4, #4]
1fff0eda:	f000 ff54 	bl	1fff1d86
1fff0ede:	f000 fe97 	bl	1fff1c10
1fff0ee2:	6871      	ldr	r1, [r6, #4]
1fff0ee4:	220f      	movs	r2, #15
1fff0ee6:	68a0      	ldr	r0, [r4, #8]
1fff0ee8:	f000 ff4d 	bl	1fff1d86
1fff0eec:	f000 fe90 	bl	1fff1c10
1fff0ef0:	6871      	ldr	r1, [r6, #4]
1fff0ef2:	220f      	movs	r2, #15
1fff0ef4:	68e0      	ldr	r0, [r4, #12]
1fff0ef6:	f000 ff46 	bl	1fff1d86
1fff0efa:	f000 fe89 	bl	1fff1c10
1fff0efe:	6828      	ldr	r0, [r5, #0]
1fff0f00:	43b8      	bics	r0, r7
1fff0f02:	6028      	str	r0, [r5, #0]
1fff0f04:	bdf8      	pop	{r3, r4, r5, r6, r7, pc}

1fff0f06:	6828      	ldr	r0, [r5, #0]  # cmd 10 /
isp_cmd_Kread_boot_version
1fff0f08:	4338      	orrs	r0, r7
1fff0f0a:	6028      	str	r0, [r5, #0]
1fff0f0c:	4824      	ldr	r0, [pc, #144]	; (1fff0fa0)
1fff0f0e:	6804      	ldr	r4, [r0, #0]
1fff0f10:	6828      	ldr	r0, [r5, #0]
1fff0f12:	43b8      	bics	r0, r7
1fff0f14:	6028      	str	r0, [r5, #0]
1fff0f16:	220f      	movs	r2, #15
1fff0f18:	2000      	movs	r0, #0
1fff0f1a:	f000 ff34 	bl	1fff1d86
1fff0f1e:	f000 fe77 	bl	1fff1c10
1fff0f22:	b2e0      	uxtb	r0, r4
1fff0f24:	220f      	movs	r2, #15
1fff0f26:	6871      	ldr	r1, [r6, #4]
1fff0f28:	f000 ff2d 	bl	1fff1d86
1fff0f2c:	f000 fe70 	bl	1fff1c10
1fff0f30:	0420      	lsls	r0, r4, #16
1fff0f32:	6871      	ldr	r1, [r6, #4]
1fff0f34:	0e00      	lsrs	r0, r0, #24
1fff0f36:	220f      	movs	r2, #15
1fff0f38:	f000 ff25 	bl	1fff1d86
1fff0f3c:	f000 fe68 	bl	1fff1c10
1fff0f40:	bdf8      	pop	{r3, r4, r5, r6, r7, pc}
1fff0f42:	f7ff fdb7 	bl	1fff0ab4  # 72 cmd 15
1fff0f46:	bdf8      	pop	{r3, r4, r5, r6, r7, pc}
1fff0f48:	f7ff fd62 	bl	1fff0a10  # 75 cmd 2
1fff0f4c:	bdf8      	pop	{r3, r4, r5, r6, r7, pc}
1fff0f4e:	f7ff fced 	bl	1fff092c  # 78 cmd 4
1fff0f52:	bdf8      	pop	{r3, r4, r5, r6, r7, pc}
1fff0f54:	f7ff fca2 	bl	1fff089c  # 7b cmd 8
1fff0f58:	bdf8      	pop	{r3, r4, r5, r6, r7, pc}
1fff0f5a:	f7ff fc65 	bl	1fff0828  # 7e cmd 12
1fff0f5e:	bdf8      	pop	{r3, r4, r5, r6, r7, pc}
1fff0f60:	f7ff fc16 	bl	1fff0790  # 81 cmd 19
1fff0f64:	bdf8      	pop	{r3, r4, r5, r6, r7, pc}
1fff0f66:	220f      	movs	r2, #15  # 84 cmd_invalid2
1fff0f68:	2001      	movs	r0, #1
1fff0f6a:	e7e5      	b.n	1fff0f38
1fff0f6c: 1000017c
1fff0f70: 10000248
1fff0f74: 00005a5a
1fff0f78: 10000180
1fff0f7c: 1fff1f72
1fff0f80: 00000470
1fff0f84: 100001b4
1fff0f88: 4003c000	# flash
1fff0f8c: 10000184
1fff0f90: 1fff0198	# CRP1 ptr
1fff0f94: 00000438
1fff0f98: 400483c0	# reserved, system ctrl
1fff0f9c: 000005dc
1fff0fa0: 00000434

1fff0fa4:	4770      	bx	lr
1fff0fa6:	e7fe      	b.n	1fff0fa6
1fff0fa8:	e7fe      	b.n	1fff0fa8
1fff0faa:	e7fe      	b.n	1fff0faa
1fff0fac:	e7fe      	b.n	1fff0fac
1fff0fae:	4770      	bx	lr
1fff0fb0:	4770      	bx	lr
1fff0fb2:	4770      	bx	lr
1fff0fb4:	4770      	bx	lr

1fff0fb6:	0000      	movs	r0, r0
1fff0fb8:	b5fe      	push	{r1, r2, r3, r4, r5, r6, r7, lr}
1fff0fba:	4efd      	ldr	r6, [pc, #1012]	; (1fff13b0)
1fff0fbc:	4ffd      	ldr	r7, [pc, #1012]	; (1fff13b4)
1fff0fbe:	4dfe      	ldr	r5, [pc, #1016]	; (1fff13b8)
1fff0fc0:	48fd      	ldr	r0, [pc, #1012]	; (1fff13b8)
1fff0fc2:	aa01      	add	r2, sp, #4
1fff0fc4:	2146      	movs	r1, #70	; 0x46
1fff0fc6:	3894      	subs	r0, #148	; 0x94
1fff0fc8:	f000 fe55 	bl	1fff1c76
1fff0fcc:	2800      	cmp	r0, #0
1fff0fce:	d1f7      	bne.n	1fff0fc0
1fff0fd0:	217a      	movs	r1, #122	; 0x7a
1fff0fd2:	0082      	lsls	r2, r0, #2
1fff0fd4:	58aa      	ldr	r2, [r5, r2]
1fff0fd6:	1c40      	adds	r0, r0, #1
1fff0fd8:	7011      	strb	r1, [r2, #0]
1fff0fda:	2805      	cmp	r0, #5
1fff0fdc:	dbf9      	blt.n	1fff0fd2
1fff0fde:	220f      	movs	r2, #15
1fff0fe0:	9200      	str	r2, [sp, #0]
1fff0fe2:	4af5      	ldr	r2, [pc, #980]	; (1fff13b8)
1fff0fe4:	2305      	movs	r3, #5
1fff0fe6:	4610      	mov	r0, r2
1fff0fe8:	3894      	subs	r0, #148	; 0x94
1fff0fea:	9901      	ldr	r1, [sp, #4]
1fff0fec:	f000 fe84 	bl	1fff1cf8
1fff0ff0:	2800      	cmp	r0, #0
1fff0ff2:	d0e5      	beq.n	1fff0fc0
1fff0ff4:	6829      	ldr	r1, [r5, #0]
1fff0ff6:	7809      	ldrb	r1, [r1, #0]
1fff0ff8:	2952      	cmp	r1, #82	; 0x52
1fff0ffa:	d005      	beq.n	1fff1008
1fff0ffc:	2954      	cmp	r1, #84	; 0x54
1fff0ffe:	d003      	beq.n	1fff1008
1fff1000:	2947      	cmp	r1, #71	; 0x47
1fff1002:	d001      	beq.n	1fff1008
1fff1004:	294d      	cmp	r1, #77	; 0x4d
1fff1006:	d101      	bne.n	1fff100c
1fff1008:	2201      	movs	r2, #1
1fff100a:	e007      	b.n	1fff101c
1fff100c:	2200      	movs	r2, #0
1fff100e:	2957      	cmp	r1, #87	; 0x57
1fff1010:	d001      	beq.n	1fff1016
1fff1012:	2943      	cmp	r1, #67	; 0x43
1fff1014:	d101      	bne.n	1fff101a
1fff1016:	2401      	movs	r4, #1
1fff1018:	e000      	b.n	1fff101c
1fff101a:	2400      	movs	r4, #0
1fff101c:	49e7      	ldr	r1, [pc, #924]	; (1fff13bc)
1fff101e:	6833      	ldr	r3, [r6, #0]
1fff1020:	6889      	ldr	r1, [r1, #8]
1fff1022:	4299      	cmp	r1, r3
1fff1024:	d006      	beq.n	1fff1034
1fff1026:	683b      	ldr	r3, [r7, #0]
1fff1028:	4299      	cmp	r1, r3
1fff102a:	d003      	beq.n	1fff1034
1fff102c:	4be4      	ldr	r3, [pc, #912]	; (1fff13c0)
1fff102e:	681b      	ldr	r3, [r3, #0]
1fff1030:	4299      	cmp	r1, r3
1fff1032:	d101      	bne.n	1fff1038
1fff1034:	2a01      	cmp	r2, #1
1fff1036:	d007      	beq.n	1fff1048
1fff1038:	6832      	ldr	r2, [r6, #0]
1fff103a:	4291      	cmp	r1, r2
1fff103c:	d002      	beq.n	1fff1044
1fff103e:	683a      	ldr	r2, [r7, #0]
1fff1040:	4291      	cmp	r1, r2
1fff1042:	d109      	bne.n	1fff1058
1fff1044:	2c01      	cmp	r4, #1
1fff1046:	d107      	bne.n	1fff1058
1fff1048:	220f      	movs	r2, #15
1fff104a:	2013      	movs	r0, #19
1fff104c:	6869      	ldr	r1, [r5, #4]
1fff104e:	f000 fe9a 	bl	1fff1d86
1fff1052:	f000 fddd 	bl	1fff1c10
1fff1056:	e7b3      	b.n	1fff0fc0
1fff1058:	f7ff fef6 	bl	1fff0e48
1fff105c:	e7b0      	b.n	1fff0fc0

1fff105e:	b5f8      	push	{r3, r4, r5, r6, r7, lr}
1fff1060:	4ed8      	ldr	r6, [pc, #864]	; (1fff13c4)
^1fff13c4: 50013fc0	# GPIO1_4..11 mask
1fff1062:	4fd9      	ldr	r7, [pc, #868]	; (1fff13c8)
^1fff13c8: 40018000	# TMR32B1IR
1fff1064:	4dd9      	ldr	r5, [pc, #868]	; (1fff13cc)
^1fff13cc: 40044080	# IOCON_R_PIO1_2 (PIO1_2 conf)
1fff1066:	2401      	movs	r4, #1
1fff1068:	2002      	movs	r0, #2
1fff106a:	6078      	str	r0, [r7, #4]
1fff106c:	6bf0      	ldr	r0, [r6, #60]	; 0x3c
1fff106e:	0640      	lsls	r0, r0, #25
1fff1070:	d4fc      	bmi.n	1fff106c
1fff1072:	6bf0      	ldr	r0, [r6, #60]	; 0x3c
1fff1074:	0640      	lsls	r0, r0, #25
1fff1076:	d5fc      	bpl.n	1fff1072
1fff1078:	607c      	str	r4, [r7, #4]
1fff107a:	6bf0      	ldr	r0, [r6, #60]	; 0x3c
1fff107c:	0640      	lsls	r0, r0, #25
1fff107e:	d4fc      	bmi.n	1fff107a
1fff1080:	6bf0      	ldr	r0, [r6, #60]	; 0x3c
1fff1082:	0640      	lsls	r0, r0, #25
1fff1084:	d5fc      	bpl.n	1fff1080
1fff1086:	2000      	movs	r0, #0
1fff1088:	6078      	str	r0, [r7, #4]
1fff108a:	68b8      	ldr	r0, [r7, #8]
1fff108c:	21d0      	movs	r1, #208	; 0xd0
1fff108e:	f000 fd69 	bl	1fff1b64
1fff1092:	2200      	movs	r2, #0
1fff1094:	2103      	movs	r1, #3
1fff1096:	f000 fd81 	bl	1fff1b9c
1fff109a:	6a68      	ldr	r0, [r5, #36]	; 0x24
1fff109c:	08c0      	lsrs	r0, r0, #3
1fff109e:	00c0      	lsls	r0, r0, #3
1fff10a0:	6268      	str	r0, [r5, #36]	; 0x24
1fff10a2:	6a68      	ldr	r0, [r5, #36]	; 0x24
1fff10a4:	4320      	orrs	r0, r4
1fff10a6:	6268      	str	r0, [r5, #36]	; 0x24
1fff10a8:	6aa8      	ldr	r0, [r5, #40]	; 0x28
1fff10aa:	08c0      	lsrs	r0, r0, #3
1fff10ac:	00c0      	lsls	r0, r0, #3
1fff10ae:	62a8      	str	r0, [r5, #40]	; 0x28
1fff10b0:	6aa8      	ldr	r0, [r5, #40]	; 0x28
1fff10b2:	4320      	orrs	r0, r4
1fff10b4:	62a8      	str	r0, [r5, #40]	; 0x28
1fff10b6:	48c6      	ldr	r0, [pc, #792]	; (1fff13d0)
1fff10b8:	f000 fdaa 	bl	1fff1c10
1fff10bc:	f000 fdca 	bl	1fff1c54
1fff10c0:	48bd      	ldr	r0, [pc, #756]	; (1fff13b8)
1fff10c2:	2200      	movs	r2, #0
1fff10c4:	2146      	movs	r1, #70	; 0x46
1fff10c6:	3894      	subs	r0, #148	; 0x94
1fff10c8:	f000 fdd5 	bl	1fff1c76
1fff10cc:	48ba      	ldr	r0, [pc, #744]	; (1fff13b8)
1fff10ce:	49c0      	ldr	r1, [pc, #768]	; (1fff13d0)
1fff10d0:	3894      	subs	r0, #148	; 0x94
1fff10d2:	f000 fe01 	bl	1fff1cd8
1fff10d6:	2800      	cmp	r0, #0
1fff10d8:	d008      	beq.n	1fff10ec
1fff10da:	6a68      	ldr	r0, [r5, #36]	; 0x24
1fff10dc:	08c0      	lsrs	r0, r0, #3
1fff10de:	00c0      	lsls	r0, r0, #3
1fff10e0:	6268      	str	r0, [r5, #36]	; 0x24
1fff10e2:	6aa8      	ldr	r0, [r5, #40]	; 0x28
1fff10e4:	08c0      	lsrs	r0, r0, #3
1fff10e6:	00c0      	lsls	r0, r0, #3
1fff10e8:	62a8      	str	r0, [r5, #40]	; 0x28
1fff10ea:	e7bd      	b.n	1fff1068
1fff10ec:	bdf8      	pop	{r3, r4, r5, r6, r7, pc}

# <isp_bootloader_uart_1>
1fff10ee:	48b9      	ldr	r0, [pc, #740]	; (1fff13d4)
^1fff13d4: 40048080	# SYSAHBCLKCTRL
1fff10f0:	6801      	ldr	r1, [r0, #0]
1fff10f2:	2201      	movs	r2, #1
1fff10f4:	0312      	lsls	r2, r2, #12
1fff10f6:	4311      	orrs	r1, r2
1fff10f8:	6001      	str	r1, [r0, #0] # enable UART clock

# set something at [40048090]
1fff10fa:	6901      	ldr	r1, [r0, #16]
1fff10fc:	2202      	movs	r2, #2
1fff10fe:	4311      	orrs	r1, r2
1fff1100:	6101      	str	r1, [r0, #16]

# set something at [40048098/UARTCLKDIV]
1fff1102:	2101      	movs	r1, #1
1fff1104:	6181      	str	r1, [r0, #24]  # UARTCLKDIV=1

1fff1106:	49b4      	ldr	r1, [pc, #720]	; (1fff13d8)
^1fff13d8: 40008000	# UART
1fff1108:	2085      	movs	r0, #133	; 0x85
1fff110a:	6288      	str	r0, [r1, #40]	; 0x28  [U0FDR]=133

1fff110c:	48b3      	ldr	r0, [pc, #716]	; (1fff13dc)
^1fff13dc: 50018000	# GPIO_1_DIR
1fff110e:	6901      	ldr	r1, [r0, #16]	# GPIO0_IE
1fff1110:	2240      	movs	r2, #64	; 0x40
1fff1112:	4391      	bics	r1, r2
1fff1114:	6101      	str	r1, [r0, #16]	# disable GPIO0_6
interrupt?

1fff1116:	49ad      	ldr	r1, [pc, #692]	; (1fff13cc)
^1fff13cc: 40044080	# IOCON_R_PIO1_2 (PIO1_2 conf)
1fff1118:	6a4b      	ldr	r3, [r1, #36]	; 0x24 # 400440a6
IOCON_PIO1_6
1fff111a:	08db      	lsrs	r3, r3, #3
1fff111c:	00db      	lsls	r3, r3, #3
1fff111e:	624b      	str	r3, [r1, #36]	; 0x24 # select GPIO
functionality
1fff1120:	6a4b      	ldr	r3, [r1, #36]	; 0x24
1fff1122:	624b      	str	r3, [r1, #36]	; 0x24
1fff1124:	6801      	ldr	r1, [r0, #0]
1fff1126:	4391      	bics	r1, r2
1fff1128:	6001      	str	r1, [r0, #0]
1fff112a:	4770      	bx	lr

# <isp_bootloader_uart>
1fff112c:	b510      	push	{r4, lr}
1fff112e:	f7ff ffde 	bl	1fff10ee
1fff1132:	2001      	movs	r0, #1
1fff1134:	f000 fdc7 	bl	1fff1cc6
1fff1138:	f7ff ff91 	bl	1fff105e
1fff113c:	48a8      	ldr	r0, [pc, #672]	; (1fff13e0)
1fff113e:	f000 fd67 	bl	1fff1c10
1fff1142:	489d      	ldr	r0, [pc, #628]	; (1fff13b8)
1fff1144:	2200      	movs	r2, #0
1fff1146:	2146      	movs	r1, #70	; 0x46
1fff1148:	3894      	subs	r0, #148	; 0x94
1fff114a:	f000 fd94 	bl	1fff1c76
1fff114e:	4c9b      	ldr	r4, [pc, #620]	; (1fff13bc)
1fff1150:	48a4      	ldr	r0, [pc, #656]	; (1fff13e4)
1fff1152:	6020      	str	r0, [r4, #0]
1fff1154:	48a2      	ldr	r0, [pc, #648]	; (1fff13e0)
1fff1156:	f000 fd5b 	bl	1fff1c10
1fff115a:	2001      	movs	r0, #1
1fff115c:	4996      	ldr	r1, [pc, #600]	; (1fff13b8)
1fff115e:	6060      	str	r0, [r4, #4]
1fff1160:	4895      	ldr	r0, [pc, #596]	; (1fff13b8)
1fff1162:	394e      	subs	r1, #78	; 0x4e
1fff1164:	6001      	str	r1, [r0, #0]
1fff1166:	310f      	adds	r1, #15
1fff1168:	6041      	str	r1, [r0, #4]
1fff116a:	310f      	adds	r1, #15
1fff116c:	6081      	str	r1, [r0, #8]
1fff116e:	310f      	adds	r1, #15
1fff1170:	60c1      	str	r1, [r0, #12]
1fff1172:	310f      	adds	r1, #15
1fff1174:	6101      	str	r1, [r0, #16]
1fff1176:	f7ff ff1f 	bl	1fff0fb8
1fff117a:	bd10      	pop	{r4, pc}
1fff117c:	4992      	ldr	r1, [pc, #584]	; (1fff13c8)
1fff117e:	2202      	movs	r2, #2
1fff1180:	604a      	str	r2, [r1, #4]
1fff1182:	2201      	movs	r2, #1
1fff1184:	604a      	str	r2, [r1, #4]
1fff1186:	230c      	movs	r3, #12
1fff1188:	4358      	muls	r0, r3
1fff118a:	688a      	ldr	r2, [r1, #8]
1fff118c:	4282      	cmp	r2, r0
1fff118e:	d3fc      	bcc.n	1fff118a
1fff1190:	2000      	movs	r0, #0
1fff1192:	6048      	str	r0, [r1, #4]
1fff1194:	4770      	bx	lr

# <isp_bootloader_usb>
1fff1196:	b570      	push	{r4, r5, r6, lr}
1fff1198:	4c93      	ldr	r4, [pc, #588]	; (1fff13e8)
1fff119a:	6ba0      	ldr	r0, [r4, #56]	; 0x38
1fff119c:	1521      	asrs	r1, r4, #20
1fff119e:	4388      	bics	r0, r1
1fff11a0:	63a0      	str	r0, [r4, #56]	; 0x38
1fff11a2:	6ba0      	ldr	r0, [r4, #56]	; 0x38
1fff11a4:	2120      	movs	r1, #32
1fff11a6:	4388      	bics	r0, r1
1fff11a8:	63a0      	str	r0, [r4, #56]	; 0x38
1fff11aa:	20ff      	movs	r0, #255	; 0xff
1fff11ac:	30f5      	adds	r0, #245	; 0xf5
1fff11ae:	f7ff ffe5 	bl	1fff117c
1fff11b2:	4d88      	ldr	r5, [pc, #544]	; (1fff13d4)
^1fff13d4: 40048080	# SYSAHBCLKCTRL
1fff11b4:	2201      	movs	r2, #1
1fff11b6:	3d40      	subs	r5, #64	; 0x40
1fff11b8:	602a      	str	r2, [r5, #0]
1fff11ba:	2300      	movs	r3, #0
1fff11bc:	606b      	str	r3, [r5, #4]
1fff11be:	606a      	str	r2, [r5, #4]
1fff11c0:	4884      	ldr	r0, [pc, #528]	; (1fff13d4)
^1fff13d4: 40048080	# SYSAHBCLKCTRL
1fff11c2:	2123      	movs	r1, #35	; 0x23
1fff11c4:	3880      	subs	r0, #128	; 0x80
1fff11c6:	6081      	str	r1, [r0, #8]
1fff11c8:	6ba1      	ldr	r1, [r4, #56]	; 0x38
1fff11ca:	2680      	movs	r6, #128	; 0x80
1fff11cc:	43b1      	bics	r1, r6
1fff11ce:	63a1      	str	r1, [r4, #56]	; 0x38
1fff11d0:	68c1      	ldr	r1, [r0, #12]
1fff11d2:	07c9      	lsls	r1, r1, #31
1fff11d4:	d0fc      	beq.n	1fff11d0
1fff11d6:	2003      	movs	r0, #3
1fff11d8:	6328      	str	r0, [r5, #48]	; 0x30
1fff11da:	636b      	str	r3, [r5, #52]	; 0x34
1fff11dc:	636a      	str	r2, [r5, #52]	; 0x34
1fff11de:	487d      	ldr	r0, [pc, #500]	; (1fff13d4)
^1fff13d4: 40048080	# SYSAHBCLKCTRL
1fff11e0:	3040      	adds	r0, #64	; 0x40
1fff11e2:	6002      	str	r2, [r0, #0]
1fff11e4:	6043      	str	r3, [r0, #4]
1fff11e6:	6042      	str	r2, [r0, #4]
1fff11e8:	6082      	str	r2, [r0, #8]
1fff11ea:	6ba0      	ldr	r0, [r4, #56]	; 0x38
1fff11ec:	21ff      	movs	r1, #255	; 0xff
1fff11ee:	3101      	adds	r1, #1
1fff11f0:	4388      	bics	r0, r1
1fff11f2:	63a0      	str	r0, [r4, #56]	; 0x38
1fff11f4:	4875      	ldr	r0, [pc, #468]	; (1fff13cc)
^1fff13cc: 40044080	# IOCON_R_PIO1_2 (PIO1_2 conf)
1fff11f6:	3880      	subs	r0, #128	; 0x80
1fff11f8:	6ac1      	ldr	r1, [r0, #44]	; 0x2c
1fff11fa:	08c9      	lsrs	r1, r1, #3
1fff11fc:	00c9      	lsls	r1, r1, #3
1fff11fe:	62c1      	str	r1, [r0, #44]	; 0x2c
1fff1200:	6ac1      	ldr	r1, [r0, #44]	; 0x2c
1fff1202:	4311      	orrs	r1, r2
1fff1204:	62c1      	str	r1, [r0, #44]	; 0x2c
1fff1206:	4871      	ldr	r0, [pc, #452]	; (1fff13cc)
^1fff13cc: 40044080	# IOCON_R_PIO1_2 (PIO1_2 conf)
1fff1208:	3840      	subs	r0, #64	; 0x40
1fff120a:	68c1      	ldr	r1, [r0, #12]
1fff120c:	08c9      	lsrs	r1, r1, #3
1fff120e:	00c9      	lsls	r1, r1, #3
1fff1210:	60c1      	str	r1, [r0, #12]
1fff1212:	68c1      	ldr	r1, [r0, #12]
1fff1214:	4311      	orrs	r1, r2
1fff1216:	60c1      	str	r1, [r0, #12]
1fff1218:	bd70      	pop	{r4, r5, r6, pc}

<setup_hw>
^1fff121a:	486e      	ldr	r0, [pc, #440]	; (1fff13d4)
^1fff13d4: 40048080	# SYSAHBCLKCTRL
^1fff121c:	3840      	subs	r0, #64	; 0x40	# r0 = 40048040
^1fff121e:	6b03      	ldr	r3, [r0, #48]	; 0x30	# r3 =
[40048070/MAINCLKSEL]
^1fff1220:	2100      	movs	r1, #0
^1fff1222:	2201      	movs	r2, #1
^1fff1224:	2b00      	cmp	r3, #0		# main clk == IRC?
^1fff1226:	d002      	beq.n	1fff122e
^# below switches to IRC clock
^1fff1228:	6301      	str	r1, [r0, #48]	; 0x30	[MAINCLKSEL]=IRC
^1fff122a:	6341      	str	r1, [r0, #52]	; 0x34	[MAINCLKUEN] =
0
^1fff122c:	6342      	str	r2, [r0, #52]	; 0x34	...= 1
^1fff122e:	6382      	str	r2, [r0, #56]	; 0x38	#
[SYSAHBCLKDIV] = 1
^1fff1230:	4a68      	ldr	r2, [pc, #416]	; (1fff13d4)
^1fff1232:	6810      	ldr	r0, [r2, #0]		# r0 =
[SYSAHBCLKCTRL]
^1fff1234:	4b6d      	ldr	r3, [pc, #436]	; (1fff13ec)
^1fff13ec: 00010440
^1fff1236:	4318      	orrs	r0, r3
^1fff1238:	6010      	str	r0, [r2, #0]	# enable clocks: GPIO,
CT32B1, IOCON
^1fff123a:	4863      	ldr	r0, [pc, #396]	; (1fff13c8)
^1fff13c8: 40018000	# TMR32B1IR
^1fff123c:	60c1      	str	r1, [r0, #12]	# TMR32B1PR -
prescaler
^1fff123e:	6101      	str	r1, [r0, #16]	# TMR32B1PC - prescale counter
^1fff1240:	4961      	ldr	r1, [pc, #388]	; (1fff13c8)
^1fff1242:	3140      	adds	r1, #64	; 0x40	# r1 = 40018040
^1fff1244:	6b08      	ldr	r0, [r1, #48]	; 0x30	# r0 =
[TMR32B1CTCR]
^1fff1246:	220c      	movs	r2, #12 ; 0xc
^1fff1248:	4010      	ands	r0, r2
^1fff124a:	6308      	str	r0, [r1, #48]	; 0x30	# set TIMER
mode
^1fff124c:	4770      	bx	lr

^<boot_enter_isp>
^1fff124e:	b510      	push	{r4, lr}

^[4003c000] |= 0x40
^1fff1250:	4867      	ldr	r0, [pc, #412]	; (1fff13f0)
^1fff1252:	6802      	ldr	r2, [r0, #0]
^1fff1254:	2140      	movs	r1, #64	; 0x40
^1fff1256:	430a      	orrs	r2, r1
^1fff1258:	6002      	str	r2, [r0, #0]

^1fff125a:	4a66      	ldr	r2, [pc, #408]	; (1fff13f4)
^1fff13f4: 00000430
^1fff125c:	6814      	ldr	r4, [r2, #0]	# r4 =
[_430]/ffffffc1/-63

^[4003c000] &= ~0x40
^1fff125e:	6802      	ldr	r2, [r0, #0]
^1fff1260:	438a      	bics	r2, r1
^1fff1262:	6002      	str	r2, [r0, #0]

^1fff1264:	4864      	ldr	r0, [pc, #400]	; (1fff13f8)
^1fff13f8: 1fff018c	# CRP ptr
^1fff1266:	4955      	ldr	r1, [pc, #340]	; (1fff13bc)
^1fff13bc: 1000017c
^1fff1268:	6800      	ldr	r0, [r0, #0]
^1fff018c  000002fc	# CRP addr
^1fff126a:	6800      	ldr	r0, [r0, #0] 	# r0 = [CRP addr]
^1fff126c:	6088      	str	r0, [r1, #8]	# [10000184] = CRP val
^1fff126e:	f7ff ffd4 	bl	1fff121a <setup_hw>
^1fff1272:	07e0      	lsls	r0, r4, #31
^1fff1274:	d108      	bne.n	1fff1288
^1fff1276:	4861      	ldr	r0, [pc, #388]	; (1fff13fc)
^1fff13fc: 50003fc0
^1fff1278:	6bc0      	ldr	r0, [r0, #60]	# [GPIO0DATA]
^1fff127a:	0700      	lsls	r0, r0, #28	# r0=data<<28
^1fff127c:	d504      	bpl.n	1fff1288	# PIO0_3(USB_VBUS) == 0, jump

# PIO_USB_VBUS=1
^1fff127e:	f7ff ff8a 	bl	1fff1196
^1fff1282:	f001 f86e 	bl	1fff2362
^1fff1286:	bd10      	pop	{r4, pc}

# PIO_USB_VBUS=0
^1fff1288:	f7ff ff50 	bl	1fff112c
^1fff128c:	bd10      	pop	{r4, pc}

^<normal_boot_1>
^1fff128e:	b570      	push	{r4, r5, r6, lr}
^1fff1290:	4957      	ldr	r1, [pc, #348]	; (1fff13f0)
^1fff1292:	6808      	ldr	r0, [r1, #0]
^1fff1294:	2540      	movs	r5, #64	; 0x40
^1fff1296:	4328      	orrs	r0, r5
^[4003c000] |= 0x40
^1fff1298:	6008      	str	r0, [r1, #0]
^1fff129a:	4a59      	ldr	r2, [pc, #356]	; (1fff1400)
^1fff1400: 00000458
^1fff129c:	4c4d      	ldr	r4, [pc, #308]	; (1fff13d4)
^1fff13d4: 40048080	# SYSAHBCLKCTRL
^1fff129e:	2302      	movs	r3, #2
^1fff12a0:	3c80      	subs	r4, #128	; 0x80
^1fff12a2:	6810      	ldr	r0, [r2, #0]	# r0 =
[458/flash_start]
^1fff12a4:	6023      	str	r3, [r4, #0]	#
^[40048000/SYSMEMREMAP] = 2/USERFLASHMODE
^1fff12a6:	6813      	ldr	r3, [r2, #0]	# r3 =
[458/flash_start]

^[4003c000] &= ~0x40
^1fff12a8:	680a      	ldr	r2, [r1, #0]
^1fff12aa:	43aa      	bics	r2, r5
^1fff12ac:	600a      	str	r2, [r1, #0]

^1fff12ae:	2200      	movs	r2, #0
^1fff12b0:	4611      	mov	r1, r2
^# loop that loads 8 32-bit ints, starting at r3 ([458/FLASH_START])
^1fff12b2:	008d      	lsls	r5, r1, #2
^1fff12b4:	595d      	ldr	r5, [r3, r5]
^1fff12b6:	1c49      	adds	r1, r1, #1
^1fff12b8:	18aa      	adds	r2, r5, r2
^1fff12ba:	2908      	cmp	r1, #8
^1fff12bc:	dbf9      	blt.n	1fff12b2
^1fff12be:	2a00      	cmp	r2, #0	# == 0 - is this the "first 8
^words" checksum?
^1fff12c0:	d102      	bne.n	1fff12c8	# fail, go to
^bootloader?
^1fff12c2:	f7fe ff45 	bl	1fff0150	# start_user_code(vect_ptr)
^1fff12c6:	bd70      	pop	{r4, r5, r6, pc}

^1fff12c8:	2000      	movs	r0, #0
^1fff12ca:	6020      	str	r0, [r4, #0]	SYSMEMREMAP =
^0/BOOTLOADER_MODE
^1fff12cc:	bd70      	pop	{r4, r5, r6, pc}

^<normal_boot>
^1fff12ce:	b510      	push	{r4, lr}
^1fff12d0:	f7ff ffdd 	bl	1fff128e <normal_boot_1>
^1fff12d4:	f7ff ffbb 	bl	1fff124e <boot_enter_isp>
^1fff12d8:	bd10      	pop	{r4, pc}


^1fff12db: <reset_handler_2>
^1fff12da:	b5f8      	push	{r3, r4, r5, r6, r7, lr}
^1fff12dc:	4a44      	ldr	r2, [pc, #272]	; (1fff13f0)
^
^# flash setup
^[4003c000] &= ~0x40
^1fff12de:	6810      	ldr	r0, [r2, #0]	# r0 = [4003c000]
^1fff12e0:	2340      	movs	r3, #64	; 0x40
^1fff12e2:	4398      	bics	r0, r3
^1fff12e4:	6010      	str	r0, [r2, #0]
^
^1fff12e6:	4844      	ldr	r0, [pc, #272]	; (1fff13f8) # r0 = 1fff018c
^1fff12e8:	4934      	ldr	r1, [pc, #208]	; (1fff13bc) # r1 = 1000017c
^1fff12ea:	6800      	ldr	r0, [r0, #0]	# r0 = 2fc
^1fff12ec:	6800      	ldr	r0, [r0, #0]	# r0 = [2fc] # CRP
^1fff12ee:	6088      	str	r0, [r1, #8]	#
[10000184/CRP_storage] = CRP
^
^# flash setup
^[4003c000] |= 0x40
^ # I suspect this enables some special flash area on 0x0, instead of default
flash. Extra ROM space, EEPROM?
^1fff12f0:	6810      	ldr	r0, [r2, #0]
^1fff12f2:	4318      	orrs	r0, r3
^1fff12f4:	6010      	str	r0, [r2, #0]
^
^1fff12f6:	4843      	ldr	r0, [pc, #268]	; (1fff1404)
^1fff12f8:	4943      	ldr	r1, [pc, #268]	; (1fff1408)
^1fff1404: 000005d0
^1fff1408: 3456abcd
^1fff12fa:	6800      	ldr	r0, [r0, #0]	# r0 = [5d0]/3456abcd
^1fff12fc:	4288      	cmp	r0, r1
^1fff12fe:	d003      	beq.n	1fff1308
^
^# flash setup
^[4003c000] &= ~0x40
^1fff1300:	6810      	ldr	r0, [r2, #0]
^1fff1302:	4398      	bics	r0, r3
^1fff1304:	6010      	str	r0, [r2, #0]
^1fff1306:	e7fe      	b.n	1fff1306	# loop forever #
^
^[5d0] == 3456abcd
^1fff1308:	483a      	ldr	r0, [pc, #232]	; (1fff13f4)
^1fff130a:	6801      	ldr	r1, [r0, #0]	# r1 =
[430]/ffffffc1/-63 # some config?
^1fff130c:	483f      	ldr	r0, [pc, #252]	; (1fff140c)
^1fff140c: 400483c0	# reserved, system ctrl
^1fff130e:	6381      	str	r1, [r0, #56]	; 0x38 [400483f8] = r1 # DEVICE_ID+4?!
^1fff1310:	493f      	ldr	r1, [pc, #252]	; (1fff1410)
^1fff1312:	6809      	ldr	r1, [r1, #0]	# r1 = [5e0]/0000c401
^1fff1314:	63c1      	str	r1, [r0, #60]	; 0x3c [400483fc] = r1 # DEVICE_ID+8
^1fff1316:	483f      	ldr	r0, [pc, #252]	; (1fff1414)
^1fff1318:	2100      	movs	r1, #0
^1fff131a:	6800      	ldr	r0, [r0, #0]	# r0 = [43c]/SRAM_END
^1fff131c:	43c9      	mvns	r1, r1
^1fff131e:	383f      	subs	r0, #63	; 0x3f
^1fff1320:	63c1      	str	r1, [r0, #60]	; 0x3c
^1fff1322:	4e3d      	ldr	r6, [pc, #244]	; (1fff1418) r6 = 5b0
^ # it looks as 000005b0 is some settings variable - bits are checked and then
various clocks are enabled
^1fff1324:	492b      	ldr	r1, [pc, #172]	; (1fff13d4) r1 = 40048080	# SYSAHBCLKCTRL
^1fff1326:	6830      	ldr	r0, [r6, #0]	# r0 = [5b0]
^1fff1328:	6008      	str	r0, [r1, #0]	# [SYSAHBCLKCTRL] = r0
^1fff132a:	483c      	ldr	r0, [pc, #240]	; (1fff141c)
^1fff132c:	4c29      	ldr	r4, [pc, #164]	; (1fff13d4)
^1fff132e:	6800      	ldr	r0, [r0, #0]	# r0 = [5b4]
^1fff1330:	34c0      	adds	r4, #192	; 0xc0
^1fff1332:	6160      	str	r0, [r4, #20]	# [40048154/SYSTCKCAL SYST_CALIB]
^1fff1334:	483a      	ldr	r0, [pc, #232]	; (1fff1420)
^1fff1336:	4f27      	ldr	r7, [pc, #156]	; (1fff13d4)
^1fff1338:	6800      	ldr	r0, [r0, #0]	# r0 = [5bc]
^1fff133a:	3f80      	subs	r7, #128	; 0x80
^1fff133c:	62b8      	str	r0, [r7, #40]	; 0x28 [40048028/IRCCTRL trim] = r0
^1fff133e:	6830      	ldr	r0, [r6, #0]	# r0 = [5b0]
^1fff1340:	2502      	movs	r5, #2
^1fff1342:	0504      	lsls	r4, r0, #20	# r4 = [5b0] << 20
^1fff1344:	2001      	movs	r0, #1
^1fff1346:	2c00      	cmp	r4, #0
^1fff1348:	da03      	bge.n	1fff1352
^ 1fff134a:	6148      	str	r0, [r1, #20]	[40048094/SSP0CLKDIV]
= r0 (1)
^ 1fff134c:	690c      	ldr	r4, [r1, #16]	r4 = [40048090/wtf]
^ 1fff134e:	432c      	orrs	r4, r5		r4 |= 2
^ 1fff1350:	610c      	str	r4, [r1, #16]	wtf
^1fff1352:	6834      	ldr	r4, [r6, #0]	# r4 = [5b0]
^1fff1354:	04e4      	lsls	r4, r4, #19
^1fff1356:	d503      	bpl.n	1fff1360	if r4 bit 31 set,
execute following 4 instructions
^1fff1358:	6188      	str	r0, [r1, #24]	[40048098/UARTCLKDIV]
= r0 (1)
^1fff135a:	690c      	ldr	r4, [r1, #16]	r4 = [40048090/wtf]
^1fff135c:	432c      	orrs	r4, r5		r4 |= 2
^1fff135e:	610c      	str	r4, [r1, #16]
^1fff1360:	6831      	ldr	r1, [r6, #0]	# r1 = [5b0]
^1fff1362:	044c      	lsls	r4, r1, #17
^1fff1364:	492f      	ldr	r1, [pc, #188]	; (1fff1424)
^1fff1424: 400480c0	# USBCLKSEL
^1fff1366:	d500      	bpl.n	1fff136a
^ 1fff1368:	6088      	str	r0, [r1, #8]	[400480c8/USBCLKDIV] =
r0  (1)
^1fff136a:	6834      	ldr	r4, [r6, #0]	# r4 = [5b0]
^1fff136c:	0424      	lsls	r4, r4, #16
^1fff136e:	d500      	bpl.n	1fff1372
^ 1fff1370:	6188      	str	r0, [r1, #24]	[400480d8/WDTCLKDIV] =
r0 (1)
^1fff1372:	482d      	ldr	r0, [pc, #180]	; (1fff1428)
^1fff1428: 000005c8
^1fff1374:	6814      	ldr	r4, [r2, #0]
^1fff1376:	6801      	ldr	r1, [r0, #0]	r1 = [5c8]
^1fff1378:	482c      	ldr	r0, [pc, #176]	; (1fff142c)
^1fff142c: 000005cc
^1fff137a:	6800      	ldr	r0, [r0, #0]	r0 = [5cc]
^1fff137c:	439c      	bics	r4, r3
^[4003c000] &= ~0x40
^1fff137e:	6014      	str	r4, [r2, #0]

^1fff1380:	4a2b      	ldr	r2, [pc, #172]	; (1fff1430)
^1fff1430: 20080620 # reserved
^1fff1382:	4291      	cmp	r1, r2		# cmp [5c8], 20080620
^1fff1384:	d101      	bne.n	1fff138a
^1fff1386:	f7fe fee7 	bl	1fff0158	# r0 = [5cc]
^ # apparently above checks for magic in 5c8, and if match, then treat addr at
[5cc] as new vector table (SP, RESET)

^1fff138a:	6b38      	ldr	r0, [r7, #48]	; 0x30	r0 =
[40048030/SYSRESSTAT]
^1fff138c:	0740      	lsls	r0, r0, #29	# watchdog reset?
^1fff138e:	d453      	bmi.n	1fff1438	# <normal_boot2>
^1fff1390:	481a      	ldr	r0, [pc, #104]	; (1fff13fc)
^1fff1392:	6bc0      	ldr	r0, [r0, #60]	; 0x3c	# r0 =
GPIO0_DATA
^1fff1394:	0780      	lsls	r0, r0, #30	# PIO0_1 is high ->
don't enter ISP
^1fff1396:	d44f      	bmi.n	1fff1438	# <normal_boot2>
^1fff1398:	4808      	ldr	r0, [pc, #32]	; (1fff13bc)
^1fff13bc: 1000017c
^1fff139a:	4906      	ldr	r1, [pc, #24]	; (1fff13b4)
^1fff13b4: 1fff0194	# CRP3 ptr
^1fff139c:	6880      	ldr	r0, [r0, #8]	# r0 =
[10000184/CRP_storage]
^1fff139e:	6809      	ldr	r1, [r1, #0]	# r1 = CRP3
^1fff13a0:	4288      	cmp	r0, r1		# [CRP] == CRP3,
continue
^1fff13a2:	d049      	beq.n	1fff1438	# <normal_boot2>
^1fff13a4:	4923      	ldr	r1, [pc, #140]	; (1fff1434)
^1fff1434: 4e697370	# CRP NO_ISP
^1fff13a6:	4288      	cmp	r0, r1		# [CRP] == NO_ISP,
continue
^1fff13a8:	d046      	beq.n	1fff1438	# <normal_boot2>
^1fff13aa:	f7ff ff50 	bl	1fff124e	# <boot_enter_isp>
^1fff13ae:	bdf8      	pop	{r3, r4, r5, r6, r7, pc}
^
^1fff13b0: 1fff0190	# CRP2 ptr
^1fff13b4: 1fff0194	# CRP3 ptr
^1fff13b8: 10000248
^1fff13bc: 1000017c
^1fff13c0: 1fff0198	# CRP1 ptr
^1fff13c4: 50013fc0	# GPIO1_4..11 mask
^1fff13c8: 40018000	# TMR32B1IR (but also note, USBCmdCode = 0x40018010)
^1fff13cc: 40044080	# IOCON_R_PIO1_2 (PIO1_2 conf)
^1fff13d0: 1fff1f84
^1fff13d4: 40048080	# SYSAHBCLKCTRL
^1fff13d8: 40008000	# UART
^1fff13dc: 50018000	# GPIO_1_DIR
^1fff13e0: 1fff1f6f
^1fff13e4: 00002ee0
^1fff13e8: 40048200	# STARTAPRP0 (start logic edge ... interrupt)
^1fff13ec: 00010440
^1fff13f0: 4003c000	# flash
^1fff13f4: 00000430
^1fff13f8: 1fff018c	# CRP ptr
^1fff13fc: 50003fc0	# GPIO0_4..11 mask
^1fff1400: 00000458
^1fff1404: 000005d0
^1fff1408: 3456abcd
^1fff140c: 400483c0	# reserved, system ctrl
^1fff1410: 000005e0
^1fff1414: 0000043c
^1fff1418: 000005b0
^1fff141c: 000005b4
^1fff1420: 000005bc
^1fff1424: 400480c0	# USBCLKSEL
^1fff1428: 000005c8
^1fff142c: 000005cc
^1fff1430: 20080620
^1fff1434: 4e697370	# CRP NO_ISP

1fff1430:	0620      	lsls	r0, r4, #24
1fff1432:	2008      	movs	r0, #8
1fff1434:	7370      	strb	r0, [r6, #13]
1fff1436:	4e69      	ldr	r6, [pc, #420]	; (1fff15dc)

# <normal_boot2>
1fff1438:	f7ff ff49 	bl	1fff12ce <normal_boot>
1fff143c:	e7b7      	b.n	1fff13ae
1fff143e:	0000      	movs	r0, r0
1fff1440:	49ff      	ldr	r1, [pc, #1020]	; (1fff1840)
1fff1442:	2000      	movs	r0, #0
1fff1444:	7008      	strb	r0, [r1, #0]
1fff1446:	2001      	movs	r0, #1
1fff1448:	4770      	bx	lr
1fff144a:	49fe      	ldr	r1, [pc, #1016]	; (1fff1844)
1fff144c:	2000      	movs	r0, #0
1fff144e:	7008      	strb	r0, [r1, #0]
1fff1450:	2001      	movs	r0, #1
1fff1452:	4770      	bx	lr

1fff1454:	b5f8      	push	{r3, r4, r5, r6, r7, lr}
1fff1456:	48fc      	ldr	r0, [pc, #1008]	; (1fff1848)
1fff1458:	4df9      	ldr	r5, [pc, #996]	; (1fff1840)
1fff145a:	6800      	ldr	r0, [r0, #0]
1fff145c:	68ec      	ldr	r4, [r5, #12]
1fff145e:	6841      	ldr	r1, [r0, #4]
1fff1460:	2c40      	cmp	r4, #64	; 0x40
1fff1462:	d900      	bls.n	1fff1466
1fff1464:	2440      	movs	r4, #64	; 0x40
1fff1466:	68a8      	ldr	r0, [r5, #8]
1fff1468:	698a      	ldr	r2, [r1, #24]
1fff146a:	1903      	adds	r3, r0, r4
1fff146c:	4293      	cmp	r3, r2
1fff146e:	d902      	bls.n	1fff1476
1fff1470:	1a14      	subs	r4, r2, r0
1fff1472:	2204      	movs	r2, #4
1fff1474:	702a      	strb	r2, [r5, #0]
1fff1476:	6a0b      	ldr	r3, [r1, #32]
1fff1478:	4622      	mov	r2, r4
1fff147a:	49f4      	ldr	r1, [pc, #976]	; (1fff184c)
1fff147c:	4798      	blx	r3
1fff147e:	4622      	mov	r2, r4
1fff1480:	49f2      	ldr	r1, [pc, #968]	; (1fff184c)
1fff1482:	2082      	movs	r0, #130	; 0x82
1fff1484:	f001 faf9 	bl	1fff2a7a
1fff1488:	68a8      	ldr	r0, [r5, #8]
1fff148a:	1900      	adds	r0, r0, r4
1fff148c:	60a8      	str	r0, [r5, #8]
1fff148e:	68e8      	ldr	r0, [r5, #12]
1fff1490:	1b06      	subs	r6, r0, r4
1fff1492:	48ee      	ldr	r0, [pc, #952]	; (1fff184c)
1fff1494:	60ee      	str	r6, [r5, #12]
1fff1496:	30a7      	adds	r0, #167	; 0xa7
1fff1498:	4607      	mov	r7, r0
1fff149a:	f001 fbed 	bl	1fff2c78
1fff149e:	1b00      	subs	r0, r0, r4
1fff14a0:	4639      	mov	r1, r7
1fff14a2:	f001 fbfa 	bl	1fff2c9a
1fff14a6:	2e00      	cmp	r6, #0
1fff14a8:	d102      	bne.n	1fff14b0
1fff14aa:	2003      	movs	r0, #3
1fff14ac:	7028      	strb	r0, [r5, #0]
1fff14ae:	e002      	b.n	1fff14b6
1fff14b0:	7828      	ldrb	r0, [r5, #0]
1fff14b2:	2802      	cmp	r0, #2
1fff14b4:	d003      	beq.n	1fff14be
1fff14b6:	49e5      	ldr	r1, [pc, #916]	; (1fff184c)
1fff14b8:	2000      	movs	r0, #0
1fff14ba:	319f      	adds	r1, #159	; 0x9f
1fff14bc:	7308      	strb	r0, [r1, #12]
1fff14be:	bdf8      	pop	{r3, r4, r5, r6, r7, pc}

1fff14c0:	49e2      	ldr	r1, [pc, #904]	; (1fff184c)
1fff14c2:	b510      	push	{r4, lr}
1fff14c4:	319f      	adds	r1, #159	; 0x9f
1fff14c6:	48e2      	ldr	r0, [pc, #904]	; (1fff1850)
1fff14c8:	f001 fbe7 	bl	1fff2c9a
1fff14cc:	49df      	ldr	r1, [pc, #892]	; (1fff184c)
1fff14ce:	220d      	movs	r2, #13
1fff14d0:	319f      	adds	r1, #159	; 0x9f
1fff14d2:	2082      	movs	r0, #130	; 0x82
1fff14d4:	f001 fad1 	bl	1fff2a7a
1fff14d8:	49d9      	ldr	r1, [pc, #868]	; (1fff1840)
1fff14da:	2005      	movs	r0, #5
1fff14dc:	7008      	strb	r0, [r1, #0]
1fff14de:	bd10      	pop	{r4, pc}

1fff14e0:	b5f8      	push	{r3, r4, r5, r6, r7, lr}
1fff14e2:	48d9      	ldr	r0, [pc, #868]	; (1fff1848)
1fff14e4:	4cd6      	ldr	r4, [pc, #856]	; (1fff1840)
1fff14e6:	6800      	ldr	r0, [r0, #0]
1fff14e8:	7861      	ldrb	r1, [r4, #1]
1fff14ea:	6845      	ldr	r5, [r0, #4]
1fff14ec:	68a0      	ldr	r0, [r4, #8]
1fff14ee:	1842      	adds	r2, r0, r1
1fff14f0:	69a9      	ldr	r1, [r5, #24]
1fff14f2:	428a      	cmp	r2, r1
1fff14f4:	d906      	bls.n	1fff1504
1fff14f6:	1a08      	subs	r0, r1, r0
1fff14f8:	7060      	strb	r0, [r4, #1]
1fff14fa:	2005      	movs	r0, #5
1fff14fc:	7020      	strb	r0, [r4, #0]
1fff14fe:	2002      	movs	r0, #2
1fff1500:	f001 fa79 	bl	1fff29f6
1fff1504:	49d1      	ldr	r1, [pc, #836]	; (1fff184c)
1fff1506:	69eb      	ldr	r3, [r5, #28]
1fff1508:	7862      	ldrb	r2, [r4, #1]
1fff150a:	3140      	adds	r1, #64	; 0x40
1fff150c:	68a0      	ldr	r0, [r4, #8]
1fff150e:	4798      	blx	r3
1fff1510:	7865      	ldrb	r5, [r4, #1]
1fff1512:	68a0      	ldr	r0, [r4, #8]
1fff1514:	1940      	adds	r0, r0, r5
1fff1516:	60a0      	str	r0, [r4, #8]
1fff1518:	68e0      	ldr	r0, [r4, #12]
1fff151a:	1b46      	subs	r6, r0, r5
1fff151c:	48cb      	ldr	r0, [pc, #812]	; (1fff184c)
1fff151e:	60e6      	str	r6, [r4, #12]
1fff1520:	30a7      	adds	r0, #167	; 0xa7
1fff1522:	4607      	mov	r7, r0
1fff1524:	f001 fba8 	bl	1fff2c78
1fff1528:	1b40      	subs	r0, r0, r5
1fff152a:	4639      	mov	r1, r7
1fff152c:	f001 fbb5 	bl	1fff2c9a
1fff1530:	2e00      	cmp	r6, #0
1fff1532:	d002      	beq.n	1fff153a
1fff1534:	7820      	ldrb	r0, [r4, #0]
1fff1536:	2805      	cmp	r0, #5
1fff1538:	d105      	bne.n	1fff1546
1fff153a:	49c4      	ldr	r1, [pc, #784]	; (1fff184c)
1fff153c:	2000      	movs	r0, #0
1fff153e:	319f      	adds	r1, #159	; 0x9f
1fff1540:	7308      	strb	r0, [r1, #12]
1fff1542:	f7ff ffbd 	bl	1fff14c0
1fff1546:	bdf8      	pop	{r3, r4, r5, r6, r7, pc}

1fff1548:	b5f8      	push	{r3, r4, r5, r6, r7, lr}
1fff154a:	48bf      	ldr	r0, [pc, #764]	; (1fff1848)
1fff154c:	4dbc      	ldr	r5, [pc, #752]	; (1fff1840)
1fff154e:	6800      	ldr	r0, [r0, #0]
1fff1550:	7869      	ldrb	r1, [r5, #1]
1fff1552:	6844      	ldr	r4, [r0, #4]
1fff1554:	68a8      	ldr	r0, [r5, #8]
1fff1556:	1842      	adds	r2, r0, r1
1fff1558:	69a1      	ldr	r1, [r4, #24]
1fff155a:	428a      	cmp	r2, r1
1fff155c:	d906      	bls.n	1fff156c
1fff155e:	1a08      	subs	r0, r1, r0
1fff1560:	7068      	strb	r0, [r5, #1]
1fff1562:	2005      	movs	r0, #5
1fff1564:	7028      	strb	r0, [r5, #0]
1fff1566:	2002      	movs	r0, #2
1fff1568:	f001 fa45 	bl	1fff29f6
1fff156c:	6a23      	ldr	r3, [r4, #32]
1fff156e:	4632      	mov	r2, r6
1fff1570:	49b6      	ldr	r1, [pc, #728]	; (1fff184c)
1fff1572:	68a8      	ldr	r0, [r5, #8]
1fff1574:	4798      	blx	r3
1fff1576:	49b5      	ldr	r1, [pc, #724]	; (1fff184c)
1fff1578:	2000      	movs	r0, #0
1fff157a:	460a      	mov	r2, r1
1fff157c:	3240      	adds	r2, #64	; 0x40
1fff157e:	786c      	ldrb	r4, [r5, #1]
1fff1580:	e007      	b.n	1fff1592
1fff1582:	5c0b      	ldrb	r3, [r1, r0]
1fff1584:	5c16      	ldrb	r6, [r2, r0]
1fff1586:	42b3      	cmp	r3, r6
1fff1588:	d002      	beq.n	1fff1590
1fff158a:	2000      	movs	r0, #0
1fff158c:	6068      	str	r0, [r5, #4]
1fff158e:	e002      	b.n	1fff1596
1fff1590:	1c40      	adds	r0, r0, #1
1fff1592:	42a0      	cmp	r0, r4
1fff1594:	d3f5      	bcc.n	1fff1582
1fff1596:	68a8      	ldr	r0, [r5, #8]
1fff1598:	1900      	adds	r0, r0, r4
1fff159a:	60a8      	str	r0, [r5, #8]
1fff159c:	68e8      	ldr	r0, [r5, #12]
1fff159e:	1b06      	subs	r6, r0, r4
1fff15a0:	48aa      	ldr	r0, [pc, #680]	; (1fff184c)
1fff15a2:	60ee      	str	r6, [r5, #12]
1fff15a4:	30a7      	adds	r0, #167	; 0xa7
1fff15a6:	4607      	mov	r7, r0
1fff15a8:	f001 fb66 	bl	1fff2c78
1fff15ac:	1b00      	subs	r0, r0, r4
1fff15ae:	4639      	mov	r1, r7
1fff15b0:	f001 fb73 	bl	1fff2c9a
1fff15b4:	2e00      	cmp	r6, #0
1fff15b6:	d002      	beq.n	1fff15be
1fff15b8:	7828      	ldrb	r0, [r5, #0]
1fff15ba:	2805      	cmp	r0, #5
1fff15bc:	d109      	bne.n	1fff15d2
1fff15be:	6869      	ldr	r1, [r5, #4]
1fff15c0:	2001      	movs	r0, #1
1fff15c2:	2900      	cmp	r1, #0
1fff15c4:	d000      	beq.n	1fff15c8
1fff15c6:	2000      	movs	r0, #0
1fff15c8:	49a0      	ldr	r1, [pc, #640]	; (1fff184c)
1fff15ca:	319f      	adds	r1, #159	; 0x9f
1fff15cc:	7308      	strb	r0, [r1, #12]
1fff15ce:	f7ff ff77 	bl	1fff14c0
1fff15d2:	bdf8      	pop	{r3, r4, r5, r6, r7, pc}

1fff15d4:	b510      	push	{r4, lr}
1fff15d6:	489c      	ldr	r0, [pc, #624]	; (1fff1848)
1fff15d8:	6800      	ldr	r0, [r0, #0]
1fff15da:	6844      	ldr	r4, [r0, #4]
1fff15dc:	489b      	ldr	r0, [pc, #620]	; (1fff184c)
1fff15de:	3091      	adds	r0, #145	; 0x91
1fff15e0:	f001 fb4a 	bl	1fff2c78
1fff15e4:	ba00      	rev	r0, r0
1fff15e6:	0a01      	lsrs	r1, r0, #8
1fff15e8:	4898      	ldr	r0, [pc, #608]	; (1fff184c)
1fff15ea:	0209      	lsls	r1, r1, #8
1fff15ec:	3080      	adds	r0, #128	; 0x80
1fff15ee:	7d02      	ldrb	r2, [r0, #20]
1fff15f0:	6964      	ldr	r4, [r4, #20]
1fff15f2:	4311      	orrs	r1, r2
1fff15f4:	4622      	mov	r2, r4
1fff15f6:	434a      	muls	r2, r1
1fff15f8:	4991      	ldr	r1, [pc, #580]	; (1fff1840)
1fff15fa:	608a      	str	r2, [r1, #8]
1fff15fc:	7dc2      	ldrb	r2, [r0, #23]
1fff15fe:	7d83      	ldrb	r3, [r0, #22]
1fff1600:	0210      	lsls	r0, r2, #8
1fff1602:	4318      	orrs	r0, r3
1fff1604:	ba40      	rev16	r0, r0
1fff1606:	4344      	muls	r4, r0
1fff1608:	4890      	ldr	r0, [pc, #576]	; (1fff184c)
1fff160a:	60cc      	str	r4, [r1, #12]
1fff160c:	3088      	adds	r0, #136	; 0x88
1fff160e:	f001 fb33 	bl	1fff2c78
1fff1612:	42a0      	cmp	r0, r4
1fff1614:	d00d      	beq.n	1fff1632
1fff1616:	2082      	movs	r0, #130	; 0x82
1fff1618:	f001 f9ed 	bl	1fff29f6
1fff161c:	2002      	movs	r0, #2
1fff161e:	f001 f9ea 	bl	1fff29f6
1fff1622:	498a      	ldr	r1, [pc, #552]	; (1fff184c)
1fff1624:	2002      	movs	r0, #2
1fff1626:	319f      	adds	r1, #159	; 0x9f
1fff1628:	7308      	strb	r0, [r1, #12]
1fff162a:	f7ff ff49 	bl	1fff14c0
1fff162e:	2000      	movs	r0, #0
1fff1630:	bd10      	pop	{r4, pc}
1fff1632:	2001      	movs	r0, #1
1fff1634:	bd10      	pop	{r4, pc}

1fff1636:	b570      	push	{r4, r5, r6, lr}
1fff1638:	4884      	ldr	r0, [pc, #528]	; (1fff184c)
1fff163a:	3088      	adds	r0, #136	; 0x88
1fff163c:	f001 fb1c 	bl	1fff2c78
1fff1640:	4d82      	ldr	r5, [pc, #520]	; (1fff184c)
1fff1642:	2402      	movs	r4, #2
1fff1644:	359f      	adds	r5, #159	; 0x9f
1fff1646:	2800      	cmp	r0, #0
1fff1648:	d104      	bne.n	1fff1654
1fff164a:	732c      	strb	r4, [r5, #12]
1fff164c:	f7ff ff38 	bl	1fff14c0
1fff1650:	2000      	movs	r0, #0
1fff1652:	bd70      	pop	{r4, r5, r6, pc}
1fff1654:	487d      	ldr	r0, [pc, #500]	; (1fff184c)
1fff1656:	3080      	adds	r0, #128	; 0x80
1fff1658:	7b00      	ldrb	r0, [r0, #12]
1fff165a:	0600      	lsls	r0, r0, #24
1fff165c:	d403      	bmi.n	1fff1666
1fff165e:	2002      	movs	r0, #2
1fff1660:	f001 f9c9 	bl	1fff29f6
1fff1664:	e7f1      	b.n	1fff164a
1fff1666:	2001      	movs	r0, #1
1fff1668:	bd70      	pop	{r4, r5, r6, pc}

1fff166a:	b570      	push	{r4, r5, r6, lr}
1fff166c:	4877      	ldr	r0, [pc, #476]	; (1fff184c)
1fff166e:	3088      	adds	r0, #136	; 0x88
1fff1670:	f001 fb02 	bl	1fff2c78
1fff1674:	4c72      	ldr	r4, [pc, #456]	; (1fff1840)
1fff1676:	7861      	ldrb	r1, [r4, #1]
1fff1678:	4288      	cmp	r0, r1
1fff167a:	d200      	bcs.n	1fff167e
1fff167c:	7060      	strb	r0, [r4, #1]
1fff167e:	4973      	ldr	r1, [pc, #460]	; (1fff184c)
1fff1680:	7862      	ldrb	r2, [r4, #1]
1fff1682:	3140      	adds	r1, #64	; 0x40
1fff1684:	2082      	movs	r0, #130	; 0x82
1fff1686:	f001 f9f8 	bl	1fff2a7a
1fff168a:	2003      	movs	r0, #3
1fff168c:	7020      	strb	r0, [r4, #0]
1fff168e:	486f      	ldr	r0, [pc, #444]	; (1fff184c)
1fff1690:	30a7      	adds	r0, #167	; 0xa7
1fff1692:	4605      	mov	r5, r0
1fff1694:	f001 faf0 	bl	1fff2c78
1fff1698:	7861      	ldrb	r1, [r4, #1]
1fff169a:	1a40      	subs	r0, r0, r1
1fff169c:	4629      	mov	r1, r5
1fff169e:	f001 fafc 	bl	1fff2c9a
1fff16a2:	496a      	ldr	r1, [pc, #424]	; (1fff184c)
1fff16a4:	2000      	movs	r0, #0
1fff16a6:	319f      	adds	r1, #159	; 0x9f
1fff16a8:	7308      	strb	r0, [r1, #12]
1fff16aa:	bd70      	pop	{r4, r5, r6, pc}

1fff16ac:	4867      	ldr	r0, [pc, #412]	; (1fff184c)
1fff16ae:	b510      	push	{r4, lr}
1fff16b0:	3088      	adds	r0, #136	; 0x88
1fff16b2:	f001 fae1 	bl	1fff2c78
1fff16b6:	2800      	cmp	r0, #0
1fff16b8:	d009      	beq.n	1fff16ce
1fff16ba:	4864      	ldr	r0, [pc, #400]	; (1fff184c)
1fff16bc:	3080      	adds	r0, #128	; 0x80
1fff16be:	7b00      	ldrb	r0, [r0, #12]
1fff16c0:	0600      	lsls	r0, r0, #24
1fff16c2:	d501      	bpl.n	1fff16c8
1fff16c4:	2082      	movs	r0, #130	; 0x82
1fff16c6:	e000      	b.n	1fff16ca
1fff16c8:	2002      	movs	r0, #2
1fff16ca:	f001 f994 	bl	1fff29f6
1fff16ce:	495f      	ldr	r1, [pc, #380]	; (1fff184c)
1fff16d0:	2000      	movs	r0, #0
1fff16d2:	319f      	adds	r1, #159	; 0x9f
1fff16d4:	7308      	strb	r0, [r1, #12]
1fff16d6:	f7ff fef3 	bl	1fff14c0
1fff16da:	bd10      	pop	{r4, pc}

1fff16dc:	b510      	push	{r4, lr}
1fff16de:	f7ff ffaa 	bl	1fff1636
1fff16e2:	2800      	cmp	r0, #0
1fff16e4:	d01e      	beq.n	1fff1724
1fff16e6:	4859      	ldr	r0, [pc, #356]	; (1fff184c)
1fff16e8:	2170      	movs	r1, #112	; 0x70
1fff16ea:	3040      	adds	r0, #64	; 0x40
1fff16ec:	7001      	strb	r1, [r0, #0]
1fff16ee:	2100      	movs	r1, #0
1fff16f0:	7041      	strb	r1, [r0, #1]
1fff16f2:	2202      	movs	r2, #2
1fff16f4:	7082      	strb	r2, [r0, #2]
1fff16f6:	70c1      	strb	r1, [r0, #3]
1fff16f8:	7101      	strb	r1, [r0, #4]
1fff16fa:	7141      	strb	r1, [r0, #5]
1fff16fc:	7181      	strb	r1, [r0, #6]
1fff16fe:	220a      	movs	r2, #10
1fff1700:	71c2      	strb	r2, [r0, #7]
1fff1702:	7201      	strb	r1, [r0, #8]
1fff1704:	7241      	strb	r1, [r0, #9]
1fff1706:	7281      	strb	r1, [r0, #10]
1fff1708:	72c1      	strb	r1, [r0, #11]
1fff170a:	2230      	movs	r2, #48	; 0x30
1fff170c:	7302      	strb	r2, [r0, #12]
1fff170e:	2201      	movs	r2, #1
1fff1710:	7342      	strb	r2, [r0, #13]
1fff1712:	7381      	strb	r1, [r0, #14]
1fff1714:	73c1      	strb	r1, [r0, #15]
1fff1716:	7401      	strb	r1, [r0, #16]
1fff1718:	7441      	strb	r1, [r0, #17]
1fff171a:	4949      	ldr	r1, [pc, #292]	; (1fff1840)
1fff171c:	2012      	movs	r0, #18
1fff171e:	7048      	strb	r0, [r1, #1]
1fff1720:	f7ff ffa3 	bl	1fff166a
1fff1724:	bd10      	pop	{r4, pc}

1fff1726:	b510      	push	{r4, lr}
1fff1728:	4847      	ldr	r0, [pc, #284]	; (1fff1848)
1fff172a:	6800      	ldr	r0, [r0, #0]
1fff172c:	6844      	ldr	r4, [r0, #4]
1fff172e:	f7ff ff82 	bl	1fff1636
1fff1732:	2800      	cmp	r0, #0
1fff1734:	d019      	beq.n	1fff176a
1fff1736:	4945      	ldr	r1, [pc, #276]	; (1fff184c)
1fff1738:	2000      	movs	r0, #0
1fff173a:	3140      	adds	r1, #64	; 0x40
1fff173c:	7008      	strb	r0, [r1, #0]
1fff173e:	2280      	movs	r2, #128	; 0x80
1fff1740:	704a      	strb	r2, [r1, #1]
1fff1742:	7088      	strb	r0, [r1, #2]
1fff1744:	2301      	movs	r3, #1
1fff1746:	70cb      	strb	r3, [r1, #3]
1fff1748:	2320      	movs	r3, #32
1fff174a:	710b      	strb	r3, [r1, #4]
1fff174c:	714a      	strb	r2, [r1, #5]
1fff174e:	7188      	strb	r0, [r1, #6]
1fff1750:	71c8      	strb	r0, [r1, #7]
1fff1752:	68e2      	ldr	r2, [r4, #12]
1fff1754:	180b      	adds	r3, r1, r0
1fff1756:	5c12      	ldrb	r2, [r2, r0]
1fff1758:	1c40      	adds	r0, r0, #1
1fff175a:	721a      	strb	r2, [r3, #8]
1fff175c:	281c      	cmp	r0, #28
1fff175e:	d3f8      	bcc.n	1fff1752
1fff1760:	4937      	ldr	r1, [pc, #220]	; (1fff1840)
1fff1762:	2024      	movs	r0, #36	; 0x24
1fff1764:	7048      	strb	r0, [r1, #1]
1fff1766:	f7ff ff80 	bl	1fff166a
1fff176a:	bd10      	pop	{r4, pc}

1fff176c:	b510      	push	{r4, lr}
1fff176e:	f7ff ff62 	bl	1fff1636
1fff1772:	2800      	cmp	r0, #0
1fff1774:	d00c      	beq.n	1fff1790
1fff1776:	4835      	ldr	r0, [pc, #212]	; (1fff184c)
1fff1778:	2103      	movs	r1, #3
1fff177a:	3040      	adds	r0, #64	; 0x40
1fff177c:	7001      	strb	r1, [r0, #0]
1fff177e:	2100      	movs	r1, #0
1fff1780:	7041      	strb	r1, [r0, #1]
1fff1782:	7081      	strb	r1, [r0, #2]
1fff1784:	70c1      	strb	r1, [r0, #3]
1fff1786:	492e      	ldr	r1, [pc, #184]	; (1fff1840)
1fff1788:	2004      	movs	r0, #4
1fff178a:	7048      	strb	r0, [r1, #1]
1fff178c:	f7ff ff6d 	bl	1fff166a
1fff1790:	bd10      	pop	{r4, pc}

1fff1792:	b510      	push	{r4, lr}
1fff1794:	f7ff ff4f 	bl	1fff1636
1fff1798:	2800      	cmp	r0, #0
1fff179a:	d010      	beq.n	1fff17be
1fff179c:	482b      	ldr	r0, [pc, #172]	; (1fff184c)
1fff179e:	2100      	movs	r1, #0
1fff17a0:	3040      	adds	r0, #64	; 0x40
1fff17a2:	7001      	strb	r1, [r0, #0]
1fff17a4:	2206      	movs	r2, #6
1fff17a6:	7042      	strb	r2, [r0, #1]
1fff17a8:	7081      	strb	r1, [r0, #2]
1fff17aa:	70c1      	strb	r1, [r0, #3]
1fff17ac:	7101      	strb	r1, [r0, #4]
1fff17ae:	7141      	strb	r1, [r0, #5]
1fff17b0:	7181      	strb	r1, [r0, #6]
1fff17b2:	71c1      	strb	r1, [r0, #7]
1fff17b4:	4922      	ldr	r1, [pc, #136]	; (1fff1840)
1fff17b6:	2008      	movs	r0, #8
1fff17b8:	7048      	strb	r0, [r1, #1]
1fff17ba:	f7ff ff56 	bl	1fff166a
1fff17be:	bd10      	pop	{r4, pc}

1fff17c0:	b510      	push	{r4, lr}
1fff17c2:	4821      	ldr	r0, [pc, #132]	; (1fff1848)
1fff17c4:	6800      	ldr	r0, [r0, #0]
1fff17c6:	6844      	ldr	r4, [r0, #4]
1fff17c8:	f7ff ff35 	bl	1fff1636
1fff17cc:	2800      	cmp	r0, #0
1fff17ce:	d020      	beq.n	1fff1812
1fff17d0:	6920      	ldr	r0, [r4, #16]
1fff17d2:	1e40      	subs	r0, r0, #1
1fff17d4:	0e01      	lsrs	r1, r0, #24
1fff17d6:	481d      	ldr	r0, [pc, #116]	; (1fff184c)
1fff17d8:	3040      	adds	r0, #64	; 0x40
1fff17da:	7001      	strb	r1, [r0, #0]
1fff17dc:	6921      	ldr	r1, [r4, #16]
1fff17de:	1e49      	subs	r1, r1, #1
1fff17e0:	0c09      	lsrs	r1, r1, #16
1fff17e2:	7041      	strb	r1, [r0, #1]
1fff17e4:	6921      	ldr	r1, [r4, #16]
1fff17e6:	1e49      	subs	r1, r1, #1
1fff17e8:	0a09      	lsrs	r1, r1, #8
1fff17ea:	7081      	strb	r1, [r0, #2]
1fff17ec:	6921      	ldr	r1, [r4, #16]
1fff17ee:	1e49      	subs	r1, r1, #1
1fff17f0:	70c1      	strb	r1, [r0, #3]
1fff17f2:	6961      	ldr	r1, [r4, #20]
1fff17f4:	0e09      	lsrs	r1, r1, #24
1fff17f6:	7101      	strb	r1, [r0, #4]
1fff17f8:	6961      	ldr	r1, [r4, #20]
1fff17fa:	0c09      	lsrs	r1, r1, #16
1fff17fc:	7141      	strb	r1, [r0, #5]
1fff17fe:	6961      	ldr	r1, [r4, #20]
1fff1800:	0a09      	lsrs	r1, r1, #8
1fff1802:	7181      	strb	r1, [r0, #6]
1fff1804:	6961      	ldr	r1, [r4, #20]
1fff1806:	71c1      	strb	r1, [r0, #7]
1fff1808:	490d      	ldr	r1, [pc, #52]	; (1fff1840)
1fff180a:	2008      	movs	r0, #8
1fff180c:	7048      	strb	r0, [r1, #1]
1fff180e:	f7ff ff2c 	bl	1fff166a
1fff1812:	bd10      	pop	{r4, pc}

1fff1814:	b510      	push	{r4, lr}
1fff1816:	480c      	ldr	r0, [pc, #48]	; (1fff1848)
1fff1818:	6800      	ldr	r0, [r0, #0]
1fff181a:	6844      	ldr	r4, [r0, #4]
1fff181c:	f7ff ff0b 	bl	1fff1636
1fff1820:	2800      	cmp	r0, #0
1fff1822:	d02c      	beq.n	1fff187e
1fff1824:	4809      	ldr	r0, [pc, #36]	; (1fff184c)
1fff1826:	2100      	movs	r1, #0
1fff1828:	3040      	adds	r0, #64	; 0x40
1fff182a:	7001      	strb	r1, [r0, #0]
1fff182c:	7041      	strb	r1, [r0, #1]
1fff182e:	7081      	strb	r1, [r0, #2]
1fff1830:	2108      	movs	r1, #8
1fff1832:	70c1      	strb	r1, [r0, #3]
1fff1834:	6921      	ldr	r1, [r4, #16]
1fff1836:	0e09      	lsrs	r1, r1, #24
1fff1838:	7101      	strb	r1, [r0, #4]
1fff183a:	6921      	ldr	r1, [r4, #16]
1fff183c:	0c09      	lsrs	r1, r1, #16
1fff183e:	e009      	b.n	1fff1854
1fff1840:	0054      	lsls	r4, r2, #1
1fff1842:	1000      	asrs	r0, r0, #32
1fff1844:	013c      	lsls	r4, r7, #4
1fff1846:	1000      	asrs	r0, r0, #32
1fff1848:	007c      	lsls	r4, r7, #1
1fff184a:	1000      	asrs	r0, r0, #32
1fff184c:	0090      	lsls	r0, r2, #2
1fff184e:	1000      	asrs	r0, r0, #32
1fff1850:	5355      	strh	r5, [r2, r5]
1fff1852:	5342      	strh	r2, [r0, r5]
1fff1854:	7141      	strb	r1, [r0, #5]
1fff1856:	6921      	ldr	r1, [r4, #16]
1fff1858:	0a09      	lsrs	r1, r1, #8
1fff185a:	7181      	strb	r1, [r0, #6]
1fff185c:	6921      	ldr	r1, [r4, #16]
1fff185e:	71c1      	strb	r1, [r0, #7]
1fff1860:	2102      	movs	r1, #2
1fff1862:	7201      	strb	r1, [r0, #8]
1fff1864:	6961      	ldr	r1, [r4, #20]
1fff1866:	0c09      	lsrs	r1, r1, #16
1fff1868:	7241      	strb	r1, [r0, #9]
1fff186a:	6961      	ldr	r1, [r4, #20]
1fff186c:	0a09      	lsrs	r1, r1, #8
1fff186e:	7281      	strb	r1, [r0, #10]
1fff1870:	6961      	ldr	r1, [r4, #20]
1fff1872:	72c1      	strb	r1, [r0, #11]
1fff1874:	496f      	ldr	r1, [pc, #444]	; (1fff1a34)
1fff1876:	200c      	movs	r0, #12
1fff1878:	7048      	strb	r0, [r1, #1]
1fff187a:	f7ff fef6 	bl	1fff166a
1fff187e:	bd10      	pop	{r4, pc}

1fff1880:	b5f8      	push	{r3, r4, r5, r6, r7, lr}
1fff1882:	4e6d      	ldr	r6, [pc, #436]	; (1fff1a38)
1fff1884:	4d6b      	ldr	r5, [pc, #428]	; (1fff1a34)
1fff1886:	2000      	movs	r0, #0
1fff1888:	4632      	mov	r2, r6
1fff188a:	7869      	ldrb	r1, [r5, #1]
1fff188c:	3a40      	subs	r2, #64	; 0x40
1fff188e:	e002      	b.n	1fff1896
1fff1890:	5c13      	ldrb	r3, [r2, r0]
1fff1892:	5433      	strb	r3, [r6, r0]
1fff1894:	1c40      	adds	r0, r0, #1
1fff1896:	4288      	cmp	r0, r1
1fff1898:	d3fa      	bcc.n	1fff1890
1fff189a:	291f      	cmp	r1, #31
1fff189c:	d17f      	bne.n	1fff199e
1fff189e:	4866      	ldr	r0, [pc, #408]	; (1fff1a38)
1fff18a0:	f001 f9ea 	bl	1fff2c78
1fff18a4:	4965      	ldr	r1, [pc, #404]	; (1fff1a3c)
1fff18a6:	4288      	cmp	r0, r1
1fff18a8:	d179      	bne.n	1fff199e
1fff18aa:	1d30      	adds	r0, r6, #4
1fff18ac:	f001 f9e4 	bl	1fff2c78
1fff18b0:	4c61      	ldr	r4, [pc, #388]	; (1fff1a38)
1fff18b2:	341f      	adds	r4, #31
1fff18b4:	1d21      	adds	r1, r4, #4
1fff18b6:	f001 f9f0 	bl	1fff2c9a
1fff18ba:	4620      	mov	r0, r4
1fff18bc:	3817      	subs	r0, #23
1fff18be:	f001 f9db 	bl	1fff2c78
1fff18c2:	4621      	mov	r1, r4
1fff18c4:	3108      	adds	r1, #8
1fff18c6:	f001 f9e8 	bl	1fff2c9a
1fff18ca:	7b70      	ldrb	r0, [r6, #13]
1fff18cc:	2800      	cmp	r0, #0
1fff18ce:	d104      	bne.n	1fff18da
1fff18d0:	7bb0      	ldrb	r0, [r6, #14]
1fff18d2:	2800      	cmp	r0, #0
1fff18d4:	d001      	beq.n	1fff18da
1fff18d6:	2810      	cmp	r0, #16
1fff18d8:	d902      	bls.n	1fff18e0
1fff18da:	2001      	movs	r0, #1
1fff18dc:	7320      	strb	r0, [r4, #12]
1fff18de:	e04d      	b.n	1fff197c
1fff18e0:	7bf0      	ldrb	r0, [r6, #15]
1fff18e2:	281e      	cmp	r0, #30
1fff18e4:	d0f9      	beq.n	1fff18da
1fff18e6:	dc10      	bgt.n	1fff190a
1fff18e8:	2812      	cmp	r0, #18
1fff18ea:	d02f      	beq.n	1fff194c
1fff18ec:	dc06      	bgt.n	1fff18fc
1fff18ee:	2800      	cmp	r0, #0
1fff18f0:	d029      	beq.n	1fff1946
1fff18f2:	2803      	cmp	r0, #3
1fff18f4:	d1f1      	bne.n	1fff18da
1fff18f6:	f7ff fef1 	bl	1fff16dc
1fff18fa:	bdf8      	pop	{r3, r4, r5, r6, r7, pc}
1fff18fc:	2815      	cmp	r0, #21
1fff18fe:	d0ec      	beq.n	1fff18da
1fff1900:	281a      	cmp	r0, #26
1fff1902:	d1ea      	bne.n	1fff18da
1fff1904:	f7ff ff32 	bl	1fff176c
1fff1908:	bdf8      	pop	{r3, r4, r5, r6, r7, pc}
1fff190a:	2702      	movs	r7, #2
1fff190c:	282a      	cmp	r0, #42	; 0x2a
1fff190e:	d028      	beq.n	1fff1962
1fff1910:	dc10      	bgt.n	1fff1934
1fff1912:	2823      	cmp	r0, #35	; 0x23
1fff1914:	d01d      	beq.n	1fff1952
1fff1916:	2825      	cmp	r0, #37	; 0x25
1fff1918:	d01e      	beq.n	1fff1958
1fff191a:	2828      	cmp	r0, #40	; 0x28
1fff191c:	d1dd      	bne.n	1fff18da
1fff191e:	f7ff fe59 	bl	1fff15d4
1fff1922:	2800      	cmp	r0, #0
1fff1924:	d0f0      	beq.n	1fff1908
1fff1926:	7b30      	ldrb	r0, [r6, #12]
1fff1928:	0600      	lsls	r0, r0, #24
1fff192a:	d518      	bpl.n	1fff195e
1fff192c:	702f      	strb	r7, [r5, #0]
1fff192e:	f7ff fd91 	bl	1fff1454
1fff1932:	bdf8      	pop	{r3, r4, r5, r6, r7, pc}
1fff1934:	282f      	cmp	r0, #47	; 0x2f
1fff1936:	d025      	beq.n	1fff1984
1fff1938:	2855      	cmp	r0, #85	; 0x55
1fff193a:	d0ce      	beq.n	1fff18da
1fff193c:	285a      	cmp	r0, #90	; 0x5a
1fff193e:	d1cc      	bne.n	1fff18da
1fff1940:	f7ff ff27 	bl	1fff1792
1fff1944:	bdf8      	pop	{r3, r4, r5, r6, r7, pc}
1fff1946:	f7ff feb1 	bl	1fff16ac
1fff194a:	bdf8      	pop	{r3, r4, r5, r6, r7, pc}
1fff194c:	f7ff feeb 	bl	1fff1726
1fff1950:	bdf8      	pop	{r3, r4, r5, r6, r7, pc}
1fff1952:	f7ff ff5f 	bl	1fff1814
1fff1956:	bdf8      	pop	{r3, r4, r5, r6, r7, pc}
1fff1958:	f7ff ff32 	bl	1fff17c0
1fff195c:	bdf8      	pop	{r3, r4, r5, r6, r7, pc}
1fff195e:	2002      	movs	r0, #2
1fff1960:	e009      	b.n	1fff1976
1fff1962:	f7ff fe37 	bl	1fff15d4
1fff1966:	2800      	cmp	r0, #0
1fff1968:	d0f8      	beq.n	1fff195c
1fff196a:	7b30      	ldrb	r0, [r6, #12]
1fff196c:	0600      	lsls	r0, r0, #24
1fff196e:	d414      	bmi.n	1fff199a
1fff1970:	2001      	movs	r0, #1
1fff1972:	7028      	strb	r0, [r5, #0]
1fff1974:	bdf8      	pop	{r3, r4, r5, r6, r7, pc}
1fff1976:	f001 f83e 	bl	1fff29f6
1fff197a:	7327      	strb	r7, [r4, #12]
1fff197c:	f7ff fda0 	bl	1fff14c0
1fff1980:	bdf8      	pop	{r3, r4, r5, r6, r7, pc}
1fff1982:	e00c      	b.n	1fff199e
1fff1984:	f7ff fe26 	bl	1fff15d4
1fff1988:	2800      	cmp	r0, #0
1fff198a:	d0f9      	beq.n	1fff1980
1fff198c:	7b30      	ldrb	r0, [r6, #12]
1fff198e:	0600      	lsls	r0, r0, #24
1fff1990:	d403      	bmi.n	1fff199a
1fff1992:	2001      	movs	r0, #1
1fff1994:	7028      	strb	r0, [r5, #0]
1fff1996:	6068      	str	r0, [r5, #4]
1fff1998:	e7f2      	b.n	1fff1980
1fff199a:	2082      	movs	r0, #130	; 0x82
1fff199c:	e7eb      	b.n	1fff1976
1fff199e:	2082      	movs	r0, #130	; 0x82
1fff19a0:	f001 f829 	bl	1fff29f6
1fff19a4:	2002      	movs	r0, #2
1fff19a6:	f001 f826 	bl	1fff29f6
1fff19aa:	2006      	movs	r0, #6
1fff19ac:	e7e1      	b.n	1fff1972
1fff19ae:	b510      	push	{r4, lr}
1fff19b0:	4920      	ldr	r1, [pc, #128]	; (1fff1a34)
1fff19b2:	7808      	ldrb	r0, [r1, #0]
1fff19b4:	2802      	cmp	r0, #2
1fff19b6:	d008      	beq.n	1fff19ca
1fff19b8:	2803      	cmp	r0, #3
1fff19ba:	d00d      	beq.n	1fff19d8
1fff19bc:	2804      	cmp	r0, #4
1fff19be:	d00e      	beq.n	1fff19de
1fff19c0:	2805      	cmp	r0, #5
1fff19c2:	d101      	bne.n	1fff19c8
1fff19c4:	2000      	movs	r0, #0
1fff19c6:	7008      	strb	r0, [r1, #0]
1fff19c8:	bd10      	pop	{r4, pc}
1fff19ca:	481b      	ldr	r0, [pc, #108]	; (1fff1a38)
1fff19cc:	7bc0      	ldrb	r0, [r0, #15]
1fff19ce:	2828      	cmp	r0, #40	; 0x28
1fff19d0:	d1fa      	bne.n	1fff19c8
1fff19d2:	f7ff fd3f 	bl	1fff1454
1fff19d6:	bd10      	pop	{r4, pc}
1fff19d8:	f7ff fd72 	bl	1fff14c0
1fff19dc:	bd10      	pop	{r4, pc}
1fff19de:	2082      	movs	r0, #130	; 0x82
1fff19e0:	f001 f809 	bl	1fff29f6
1fff19e4:	e7f8      	b.n	1fff19d8
1fff19e6:	4914      	ldr	r1, [pc, #80]	; (1fff1a38)
1fff19e8:	b510      	push	{r4, lr}
1fff19ea:	3940      	subs	r1, #64	; 0x40
1fff19ec:	2002      	movs	r0, #2
1fff19ee:	f001 f816 	bl	1fff2a1e
1fff19f2:	4910      	ldr	r1, [pc, #64]	; (1fff1a34)
1fff19f4:	7048      	strb	r0, [r1, #1]
1fff19f6:	7808      	ldrb	r0, [r1, #0]
1fff19f8:	2800      	cmp	r0, #0
1fff19fa:	d00a      	beq.n	1fff1a12
1fff19fc:	2801      	cmp	r0, #1
1fff19fe:	d10e      	bne.n	1fff1a1e
1fff1a00:	480d      	ldr	r0, [pc, #52]	; (1fff1a38)
1fff1a02:	7bc0      	ldrb	r0, [r0, #15]
1fff1a04:	282a      	cmp	r0, #42	; 0x2a
1fff1a06:	d007      	beq.n	1fff1a18
1fff1a08:	282f      	cmp	r0, #47	; 0x2f
1fff1a0a:	d101      	bne.n	1fff1a10
1fff1a0c:	f7ff fd9c 	bl	1fff1548
1fff1a10:	bd10      	pop	{r4, pc}
1fff1a12:	f7ff ff35 	bl	1fff1880
1fff1a16:	bd10      	pop	{r4, pc}
1fff1a18:	f7ff fd62 	bl	1fff14e0
1fff1a1c:	bd10      	pop	{r4, pc}
1fff1a1e:	2002      	movs	r0, #2
1fff1a20:	f000 ffe9 	bl	1fff29f6
1fff1a24:	4904      	ldr	r1, [pc, #16]	; (1fff1a38)
1fff1a26:	2002      	movs	r0, #2
1fff1a28:	311f      	adds	r1, #31
1fff1a2a:	7308      	strb	r0, [r1, #12]
1fff1a2c:	f7ff fd48 	bl	1fff14c0
1fff1a30:	bd10      	pop	{r4, pc}
1fff1a32:	0000      	movs	r0, r0
1fff1a34:	0054      	lsls	r4, r2, #1
1fff1a36:	1000      	asrs	r0, r0, #32
1fff1a38:	0110      	lsls	r0, r2, #4
1fff1a3a:	1000      	asrs	r0, r0, #32
1fff1a3c:	5355      	strh	r5, [r2, r5]
1fff1a3e:	4342      	muls	r2, r0
1fff1a40:	1e49      	subs	r1, r1, #1
1fff1a42:	4008      	ands	r0, r1
1fff1a44:	d000      	beq.n	1fff1a48
1fff1a46:	2001      	movs	r0, #1
1fff1a48:	4770      	bx	lr

1fff1a4a:	b5f8      	push	{r3, r4, r5, r6, r7, lr}
1fff1a4c:	2400      	movs	r4, #0
1fff1a4e:	460e      	mov	r6, r1
1fff1a50:	4615      	mov	r5, r2
1fff1a52:	461f      	mov	r7, r3
1fff1a54:	2800      	cmp	r0, #0
1fff1a56:	d006      	beq.n	1fff1a66
1fff1a58:	4631      	mov	r1, r6
1fff1a5a:	f000 f97f 	bl	1fff1d5c
1fff1a5e:	2800      	cmp	r0, #0
1fff1a60:	d001      	beq.n	1fff1a66
1fff1a62:	200c      	movs	r0, #12
1fff1a64:	bdf8      	pop	{r3, r4, r5, r6, r7, pc}
1fff1a66:	2d69      	cmp	r5, #105	; 0x69
1fff1a68:	d101      	bne.n	1fff1a6e
1fff1a6a:	2000      	movs	r0, #0
1fff1a6c:	bdf8      	pop	{r3, r4, r5, r6, r7, pc}
1fff1a6e:	2104      	movs	r1, #4
1fff1a70:	6830      	ldr	r0, [r6, #0]
1fff1a72:	f7ff ffe5 	bl	1fff1a40
1fff1a76:	2800      	cmp	r0, #0
1fff1a78:	d00c      	beq.n	1fff1a94
1fff1a7a:	2d64      	cmp	r5, #100	; 0x64
1fff1a7c:	d101      	bne.n	1fff1a82
1fff1a7e:	2406      	movs	r4, #6
1fff1a80:	e06d      	b.n	1fff1b5e
1fff1a82:	240d      	movs	r4, #13
1fff1a84:	2d67      	cmp	r5, #103	; 0x67
1fff1a86:	d101      	bne.n	1fff1a8c
1fff1a88:	2402      	movs	r4, #2
1fff1a8a:	e068      	b.n	1fff1b5e
1fff1a8c:	2d68      	cmp	r5, #104	; 0x68
1fff1a8e:	d113      	bne.n	1fff1ab8
1fff1a90:	2403      	movs	r4, #3
1fff1a92:	e064      	b.n	1fff1b5e
1fff1a94:	2d65      	cmp	r5, #101	; 0x65
1fff1a96:	d111      	bne.n	1fff1abc
1fff1a98:	6830      	ldr	r0, [r6, #0]
1fff1a9a:	1fc1      	subs	r1, r0, #7
1fff1a9c:	39f9      	subs	r1, #249	; 0xf9
1fff1a9e:	d00d      	beq.n	1fff1abc
1fff1aa0:	39ff      	subs	r1, #255	; 0xff
1fff1aa2:	3901      	subs	r1, #1
1fff1aa4:	d00a      	beq.n	1fff1abc
1fff1aa6:	2101      	movs	r1, #1
1fff1aa8:	0289      	lsls	r1, r1, #10
1fff1aaa:	4288      	cmp	r0, r1
1fff1aac:	d006      	beq.n	1fff1abc
1fff1aae:	0089      	lsls	r1, r1, #2
1fff1ab0:	4288      	cmp	r0, r1
1fff1ab2:	d003      	beq.n	1fff1abc
1fff1ab4:	2006      	movs	r0, #6
1fff1ab6:	bdf8      	pop	{r3, r4, r5, r6, r7, pc}
1fff1ab8:	2c00      	cmp	r4, #0
1fff1aba:	d150      	bne.n	1fff1b5e
1fff1abc:	4b2e      	ldr	r3, [pc, #184]	; (1fff1b78)
1fff1abe:	6818      	ldr	r0, [r3, #0]
1fff1ac0:	2140      	movs	r1, #64	; 0x40
1fff1ac2:	4308      	orrs	r0, r1
1fff1ac4:	6018      	str	r0, [r3, #0]
1fff1ac6:	492d      	ldr	r1, [pc, #180]	; (1fff1b7c)
1fff1ac8:	6830      	ldr	r0, [r6, #0]
1fff1aca:	6809      	ldr	r1, [r1, #0]
1fff1acc:	4288      	cmp	r0, r1
1fff1ace:	d305      	bcc.n	1fff1adc
1fff1ad0:	4a2b      	ldr	r2, [pc, #172]	; (1fff1b80)
1fff1ad2:	19c1      	adds	r1, r0, r7
1fff1ad4:	6812      	ldr	r2, [r2, #0]
1fff1ad6:	1c52      	adds	r2, r2, #1
1fff1ad8:	4291      	cmp	r1, r2
1fff1ada:	d913      	bls.n	1fff1b04
1fff1adc:	4929      	ldr	r1, [pc, #164]	; (1fff1b84)
1fff1ade:	6809      	ldr	r1, [r1, #0]
1fff1ae0:	4288      	cmp	r0, r1
1fff1ae2:	d305      	bcc.n	1fff1af0
1fff1ae4:	4a28      	ldr	r2, [pc, #160]	; (1fff1b88)
1fff1ae6:	19c1      	adds	r1, r0, r7
1fff1ae8:	6812      	ldr	r2, [r2, #0]
1fff1aea:	1c52      	adds	r2, r2, #1
1fff1aec:	4291      	cmp	r1, r2
1fff1aee:	d909      	bls.n	1fff1b04
1fff1af0:	4926      	ldr	r1, [pc, #152]	; (1fff1b8c)
1fff1af2:	6809      	ldr	r1, [r1, #0]
1fff1af4:	4288      	cmp	r0, r1
1fff1af6:	d307      	bcc.n	1fff1b08
1fff1af8:	4a25      	ldr	r2, [pc, #148]	; (1fff1b90)
1fff1afa:	19c1      	adds	r1, r0, r7
1fff1afc:	6812      	ldr	r2, [r2, #0]
1fff1afe:	1c52      	adds	r2, r2, #1
1fff1b00:	4291      	cmp	r1, r2
1fff1b02:	d801      	bhi.n	1fff1b08
1fff1b04:	2101      	movs	r1, #1
1fff1b06:	e000      	b.n	1fff1b0a
1fff1b08:	2100      	movs	r1, #0
1fff1b0a:	4a22      	ldr	r2, [pc, #136]	; (1fff1b94)
1fff1b0c:	6812      	ldr	r2, [r2, #0]
1fff1b0e:	4290      	cmp	r0, r2
1fff1b10:	d307      	bcc.n	1fff1b22
1fff1b12:	19c2      	adds	r2, r0, r7
1fff1b14:	4820      	ldr	r0, [pc, #128]	; (1fff1b98)
1fff1b16:	6800      	ldr	r0, [r0, #0]
1fff1b18:	1c40      	adds	r0, r0, #1
1fff1b1a:	4282      	cmp	r2, r0
1fff1b1c:	d801      	bhi.n	1fff1b22
1fff1b1e:	2001      	movs	r0, #1
1fff1b20:	e000      	b.n	1fff1b24
1fff1b22:	2000      	movs	r0, #0
1fff1b24:	681a      	ldr	r2, [r3, #0]
1fff1b26:	2740      	movs	r7, #64	; 0x40
1fff1b28:	43ba      	bics	r2, r7
1fff1b2a:	601a      	str	r2, [r3, #0]
1fff1b2c:	2d66      	cmp	r5, #102	; 0x66
1fff1b2e:	d103      	bne.n	1fff1b38
1fff1b30:	4301      	orrs	r1, r0
1fff1b32:	d114      	bne.n	1fff1b5e
1fff1b34:	240e      	movs	r4, #14
1fff1b36:	e012      	b.n	1fff1b5e
1fff1b38:	2d67      	cmp	r5, #103	; 0x67
1fff1b3a:	d103      	bne.n	1fff1b44
1fff1b3c:	2900      	cmp	r1, #0
1fff1b3e:	d10e      	bne.n	1fff1b5e
1fff1b40:	2404      	movs	r4, #4
1fff1b42:	e00c      	b.n	1fff1b5e
1fff1b44:	2d68      	cmp	r5, #104	; 0x68
1fff1b46:	d10a      	bne.n	1fff1b5e
1fff1b48:	2800      	cmp	r0, #0
1fff1b4a:	d101      	bne.n	1fff1b50
1fff1b4c:	2405      	movs	r4, #5
1fff1b4e:	e006      	b.n	1fff1b5e
1fff1b50:	21ff      	movs	r1, #255	; 0xff
1fff1b52:	3101      	adds	r1, #1
1fff1b54:	6830      	ldr	r0, [r6, #0]
1fff1b56:	f7ff ff73 	bl	1fff1a40
1fff1b5a:	2800      	cmp	r0, #0
1fff1b5c:	d198      	bne.n	1fff1a90
1fff1b5e:	4620      	mov	r0, r4
1fff1b60:	bdf8      	pop	{r3, r4, r5, r6, r7, pc}
1fff1b62:	4770      	bx	lr

1fff1b64:	b510      	push	{r4, lr}
1fff1b66:	460c      	mov	r4, r1
1fff1b68:	f001 f89f 	bl	1fff2caa
1fff1b6c:	0862      	lsrs	r2, r4, #1
1fff1b6e:	428a      	cmp	r2, r1
1fff1b70:	d200      	bcs.n	1fff1b74
1fff1b72:	1c40      	adds	r0, r0, #1
1fff1b74:	bd10      	pop	{r4, pc}
1fff1b76:	0000      	movs	r0, r0
1fff1b78: 4003c000	# flash
1fff1b7c: 00000438
1fff1b80: 0000043c
1fff1b84: 00000460
1fff1b88: 00000464
1fff1b8c: 00000468
1fff1b90: 0000046c
1fff1b94: 00000458
1fff1b98: 0000045c

1fff1b9c:	b510      	push	{r4, lr}
1fff1b9e:	460c      	mov	r4, r1
1fff1ba0:	2a00      	cmp	r2, #0
1fff1ba2:	d00b      	beq.n	1fff1bbc
1fff1ba4:	211a      	movs	r1, #26
1fff1ba6:	4341      	muls	r1, r0
1fff1ba8:	207d      	movs	r0, #125	; 0x7d
1fff1baa:	00c0      	lsls	r0, r0, #3
1fff1bac:	4350      	muls	r0, r2
1fff1bae:	f7ff ffd9 	bl	1fff1b64
1fff1bb2:	2c01      	cmp	r4, #1
1fff1bb4:	d101      	bne.n	1fff1bba
1fff1bb6:	2403      	movs	r4, #3
1fff1bb8:	e000      	b.n	1fff1bbc
1fff1bba:	2407      	movs	r4, #7
1fff1bbc:	4943      	ldr	r1, [pc, #268]	; (1fff1ccc)
1fff1bbe:	694a      	ldr	r2, [r1, #20]
1fff1bc0:	0652      	lsls	r2, r2, #25
1fff1bc2:	d5fc      	bpl.n	1fff1bbe
1fff1bc4:	2280      	movs	r2, #128	; 0x80
1fff1bc6:	60ca      	str	r2, [r1, #12]
1fff1bc8:	6008      	str	r0, [r1, #0]
1fff1bca:	1200      	asrs	r0, r0, #8
1fff1bcc:	6048      	str	r0, [r1, #4]
1fff1bce:	2000      	movs	r0, #0
1fff1bd0:	60c8      	str	r0, [r1, #12]
1fff1bd2:	2001      	movs	r0, #1
1fff1bd4:	6088      	str	r0, [r1, #8]
1fff1bd6:	60cc      	str	r4, [r1, #12]
1fff1bd8:	bd10      	pop	{r4, pc}
1fff1bda:	493c      	ldr	r1, [pc, #240]	; (1fff1ccc)
1fff1bdc:	694a      	ldr	r2, [r1, #20]
1fff1bde:	0692      	lsls	r2, r2, #26
1fff1be0:	d5fc      	bpl.n	1fff1bdc
1fff1be2:	6008      	str	r0, [r1, #0]
1fff1be4:	4770      	bx	lr
1fff1be6:	4939      	ldr	r1, [pc, #228]	; (1fff1ccc)
1fff1be8:	6948      	ldr	r0, [r1, #20]
1fff1bea:	07c0      	lsls	r0, r0, #31
1fff1bec:	d0fc      	beq.n	1fff1be8
1fff1bee:	6808      	ldr	r0, [r1, #0]
1fff1bf0:	4a37      	ldr	r2, [pc, #220]	; (1fff1cd0)
1fff1bf2:	b2c0      	uxtb	r0, r0
1fff1bf4:	6812      	ldr	r2, [r2, #0]
1fff1bf6:	2a00      	cmp	r2, #0
1fff1bf8:	d003      	beq.n	1fff1c02
1fff1bfa:	694a      	ldr	r2, [r1, #20]
1fff1bfc:	0692      	lsls	r2, r2, #26
1fff1bfe:	d5fc      	bpl.n	1fff1bfa
1fff1c00:	6008      	str	r0, [r1, #0]
1fff1c02:	4770      	bx	lr

1fff1c04:	b500      	push	{lr}
1fff1c06:	f7ff ffee 	bl	1fff1be6
1fff1c0a:	2811      	cmp	r0, #17
1fff1c0c:	d1fb      	bne.n	1fff1c06
1fff1c0e:	bd00      	pop	{pc}

1fff1c10:	b510      	push	{r4, lr}
1fff1c12:	4c2e      	ldr	r4, [pc, #184]	; (1fff1ccc)
1fff1c14:	0003      	movs	r3, r0
1fff1c16:	d015      	beq.n	1fff1c44
1fff1c18:	e011      	b.n	1fff1c3e
1fff1c1a:	1c5b      	adds	r3, r3, #1
1fff1c1c:	f7ff ffdd 	bl	1fff1bda
1fff1c20:	6960      	ldr	r0, [r4, #20]
1fff1c22:	07c0      	lsls	r0, r0, #31
1fff1c24:	d00b      	beq.n	1fff1c3e
1fff1c26:	6820      	ldr	r0, [r4, #0]
1fff1c28:	b2c0      	uxtb	r0, r0
1fff1c2a:	281b      	cmp	r0, #27
1fff1c2c:	d101      	bne.n	1fff1c32
1fff1c2e:	2001      	movs	r0, #1
1fff1c30:	bd10      	pop	{r4, pc}
1fff1c32:	2813      	cmp	r0, #19
1fff1c34:	d103      	bne.n	1fff1c3e
1fff1c36:	f7ff ffd6 	bl	1fff1be6
1fff1c3a:	2811      	cmp	r0, #17
1fff1c3c:	d1fb      	bne.n	1fff1c36
1fff1c3e:	7818      	ldrb	r0, [r3, #0]
1fff1c40:	2800      	cmp	r0, #0
1fff1c42:	d1ea      	bne.n	1fff1c1a
1fff1c44:	200d      	movs	r0, #13
1fff1c46:	f7ff ffc8 	bl	1fff1bda
1fff1c4a:	200a      	movs	r0, #10
1fff1c4c:	f7ff ffc5 	bl	1fff1bda
1fff1c50:	2000      	movs	r0, #0
1fff1c52:	bd10      	pop	{r4, pc}
1fff1c54:	481d      	ldr	r0, [pc, #116]	; (1fff1ccc)
1fff1c56:	6941      	ldr	r1, [r0, #20]
1fff1c58:	07c9      	lsls	r1, r1, #31
1fff1c5a:	d002      	beq.n	1fff1c62
1fff1c5c:	6800      	ldr	r0, [r0, #0]
1fff1c5e:	2001      	movs	r0, #1
1fff1c60:	4770      	bx	lr
1fff1c62:	2000      	movs	r0, #0
1fff1c64:	4770      	bx	lr
1fff1c66:	481b      	ldr	r0, [pc, #108]	; (1fff1cd4)
1fff1c68:	6880      	ldr	r0, [r0, #8]
1fff1c6a:	0880      	lsrs	r0, r0, #2
1fff1c6c:	e000      	b.n	1fff1c70
1fff1c6e:	1e40      	subs	r0, r0, #1
1fff1c70:	2800      	cmp	r0, #0
1fff1c72:	d1fc      	bne.n	1fff1c6e
1fff1c74:	4770      	bx	lra

1fff1c76:	b570      	push	{r4, r5, r6, lr}
1fff1c78:	4605      	mov	r5, r0
1fff1c7a:	4616      	mov	r6, r2
1fff1c7c:	2300      	movs	r3, #0
1fff1c7e:	1e4c      	subs	r4, r1, #1
1fff1c80:	f7ff ffb1 	bl	1fff1be6
1fff1c84:	281b      	cmp	r0, #27
1fff1c86:	d101      	bne.n	1fff1c8c
1fff1c88:	2001      	movs	r0, #1
1fff1c8a:	bd70      	pop	{r4, r5, r6, pc}
1fff1c8c:	280d      	cmp	r0, #13
1fff1c8e:	d003      	beq.n	1fff1c98
1fff1c90:	280a      	cmp	r0, #10
1fff1c92:	d001      	beq.n	1fff1c98
1fff1c94:	42a3      	cmp	r3, r4
1fff1c96:	d113      	bne.n	1fff1cc0
1fff1c98:	2000      	movs	r0, #0
1fff1c9a:	54e8      	strb	r0, [r5, r3]
1fff1c9c:	2e00      	cmp	r6, #0
1fff1c9e:	d000      	beq.n	1fff1ca2
1fff1ca0:	6033      	str	r3, [r6, #0]
1fff1ca2:	f7ff ffe0 	bl	1fff1c66
1fff1ca6:	480a      	ldr	r0, [pc, #40]	; (1fff1cd0)
1fff1ca8:	6800      	ldr	r0, [r0, #0]
1fff1caa:	2800      	cmp	r0, #0
1fff1cac:	d006      	beq.n	1fff1cbc
1fff1cae:	f7ff ffd1 	bl	1fff1c54
1fff1cb2:	2800      	cmp	r0, #0
1fff1cb4:	d002      	beq.n	1fff1cbc
1fff1cb6:	200a      	movs	r0, #10
1fff1cb8:	f7ff ff8f 	bl	1fff1bda
1fff1cbc:	2000      	movs	r0, #0
1fff1cbe:	bd70      	pop	{r4, r5, r6, pc}
1fff1cc0:	54e8      	strb	r0, [r5, r3]
1fff1cc2:	1c5b      	adds	r3, r3, #1
1fff1cc4:	e7dc      	b.n	1fff1c80

1fff1cc6:	4902      	ldr	r1, [pc, #8]	; (1fff1cd0)
1fff1cc8:	6008      	str	r0, [r1, #0]
1fff1cca:	4770      	bx	lr
1fff1ccc:	8000      	strh	r0, [r0, #0]
1fff1cce:	4000      	ands	r0, r0
1fff1cd0:	0188      	lsls	r0, r1, #6
1fff1cd2:	1000      	asrs	r0, r0, #32
1fff1cd4:	8000      	strh	r0, [r0, #0]
1fff1cd6:	4001      	ands	r1, r0
1fff1cd8:	b510      	push	{r4, lr}
1fff1cda:	2200      	movs	r2, #0
1fff1cdc:	e004      	b.n	1fff1ce8
1fff1cde:	2b00      	cmp	r3, #0
1fff1ce0:	d101      	bne.n	1fff1ce6
1fff1ce2:	2000      	movs	r0, #0
1fff1ce4:	bd10      	pop	{r4, pc}
1fff1ce6:	1c52      	adds	r2, r2, #1
1fff1ce8:	5c83      	ldrb	r3, [r0, r2]
1fff1cea:	5c8c      	ldrb	r4, [r1, r2]
1fff1cec:	42a3      	cmp	r3, r4
1fff1cee:	d0f6      	beq.n	1fff1cde
1fff1cf0:	5c80      	ldrb	r0, [r0, r2]
1fff1cf2:	5c89      	ldrb	r1, [r1, r2]
1fff1cf4:	1a40      	subs	r0, r0, r1
1fff1cf6:	bd10      	pop	{r4, pc}

1fff1cf8:	b5ff      	push	{r0, r1, r2, r3, r4, r5, r6, r7, lr}
1fff1cfa:	4684      	mov	ip, r0
1fff1cfc:	2000      	movs	r0, #0
1fff1cfe:	4661      	mov	r1, ip
1fff1d00:	7809      	ldrb	r1, [r1, #0]
1fff1d02:	469e      	mov	lr, r3
1fff1d04:	9d09      	ldr	r5, [sp, #36]	; 0x24
1fff1d06:	4603      	mov	r3, r0
1fff1d08:	4604      	mov	r4, r0
1fff1d0a:	2900      	cmp	r1, #0
1fff1d0c:	d101      	bne.n	1fff1d12
1fff1d0e:	b004      	add	sp, #16
1fff1d10:	bdf0      	pop	{r4, r5, r6, r7, pc}
1fff1d12:	2100      	movs	r1, #0
1fff1d14:	1ead      	subs	r5, r5, #2
1fff1d16:	e01c      	b.n	1fff1d52
1fff1d18:	1c46      	adds	r6, r0, #1
1fff1d1a:	4576      	cmp	r6, lr
1fff1d1c:	dc1c      	bgt.n	1fff1d58
1fff1d1e:	4666      	mov	r6, ip
1fff1d20:	5c76      	ldrb	r6, [r6, r1]
1fff1d22:	2e20      	cmp	r6, #32
1fff1d24:	d007      	beq.n	1fff1d36
1fff1d26:	42ac      	cmp	r4, r5
1fff1d28:	da05      	bge.n	1fff1d36
1fff1d2a:	0087      	lsls	r7, r0, #2
1fff1d2c:	59d7      	ldr	r7, [r2, r7]
1fff1d2e:	54fe      	strb	r6, [r7, r3]
1fff1d30:	1c5b      	adds	r3, r3, #1
1fff1d32:	1c64      	adds	r4, r4, #1
1fff1d34:	e00c      	b.n	1fff1d50
1fff1d36:	4666      	mov	r6, ip
1fff1d38:	1876      	adds	r6, r6, r1
1fff1d3a:	7876      	ldrb	r6, [r6, #1]
1fff1d3c:	2e20      	cmp	r6, #32
1fff1d3e:	d101      	bne.n	1fff1d44
1fff1d40:	42ac      	cmp	r4, r5
1fff1d42:	d105      	bne.n	1fff1d50
1fff1d44:	0086      	lsls	r6, r0, #2
1fff1d46:	2400      	movs	r4, #0
1fff1d48:	5996      	ldr	r6, [r2, r6]
1fff1d4a:	1c40      	adds	r0, r0, #1
1fff1d4c:	54f4      	strb	r4, [r6, r3]
1fff1d4e:	4623      	mov	r3, r4
1fff1d50:	1c49      	adds	r1, r1, #1
1fff1d52:	9e01      	ldr	r6, [sp, #4]
1fff1d54:	42b1      	cmp	r1, r6
1fff1d56:	dddf      	ble.n	1fff1d18
1fff1d58:	1c40      	adds	r0, r0, #1
1fff1d5a:	e7d8      	b.n	1fff1d0e
1fff1d5c:	b530      	push	{r4, r5, lr}
1fff1d5e:	2500      	movs	r5, #0
1fff1d60:	462a      	mov	r2, r5
1fff1d62:	e008      	b.n	1fff1d76
1fff1d64:	4623      	mov	r3, r4
1fff1d66:	3b30      	subs	r3, #48	; 0x30
1fff1d68:	2b09      	cmp	r3, #9
1fff1d6a:	d80a      	bhi.n	1fff1d82
1fff1d6c:	230a      	movs	r3, #10
1fff1d6e:	436b      	muls	r3, r5
1fff1d70:	3b30      	subs	r3, #48	; 0x30
1fff1d72:	18e5      	adds	r5, r4, r3
1fff1d74:	1c52      	adds	r2, r2, #1
1fff1d76:	5c84      	ldrb	r4, [r0, r2]
1fff1d78:	2c00      	cmp	r4, #0
1fff1d7a:	d1f3      	bne.n	1fff1d64
1fff1d7c:	2000      	movs	r0, #0
1fff1d7e:	600d      	str	r5, [r1, #0]
1fff1d80:	bd30      	pop	{r4, r5, pc}
1fff1d82:	2001      	movs	r0, #1
1fff1d84:	bd30      	pop	{r4, r5, pc}
1fff1d86:	b570      	push	{r4, r5, r6, lr}
1fff1d88:	460d      	mov	r5, r1
1fff1d8a:	1e52      	subs	r2, r2, #1
1fff1d8c:	2100      	movs	r1, #0
1fff1d8e:	4614      	mov	r4, r2
1fff1d90:	54a9      	strb	r1, [r5, r2]
1fff1d92:	2800      	cmp	r0, #0
1fff1d94:	d10d      	bne.n	1fff1db2
1fff1d96:	2030      	movs	r0, #48	; 0x30
1fff1d98:	1e64      	subs	r4, r4, #1
1fff1d9a:	5528      	strb	r0, [r5, r4]
1fff1d9c:	e00d      	b.n	1fff1dba
1fff1d9e:	1e64      	subs	r4, r4, #1
1fff1da0:	210a      	movs	r1, #10
1fff1da2:	f000 ff82 	bl	1fff2caa
1fff1da6:	2909      	cmp	r1, #9
1fff1da8:	d801      	bhi.n	1fff1dae
1fff1daa:	3130      	adds	r1, #48	; 0x30
1fff1dac:	e000      	b.n	1fff1db0
1fff1dae:	3137      	adds	r1, #55	; 0x37
1fff1db0:	5529      	strb	r1, [r5, r4]
1fff1db2:	2c00      	cmp	r4, #0
1fff1db4:	d001      	beq.n	1fff1dba
1fff1db6:	2800      	cmp	r0, #0
1fff1db8:	d1f1      	bne.n	1fff1d9e
1fff1dba:	1928      	adds	r0, r5, r4
1fff1dbc:	bd70      	pop	{r4, r5, r6, pc}
1fff1dbe:	2860      	cmp	r0, #96	; 0x60
1fff1dc0:	d101      	bne.n	1fff1dc6
1fff1dc2:	2000      	movs	r0, #0
1fff1dc4:	4770      	bx	lr
1fff1dc6:	3820      	subs	r0, #32
1fff1dc8:	b2c0      	uxtb	r0, r0
1fff1dca:	4770      	bx	lr
1fff1dcc:	b5f0      	push	{r4, r5, r6, r7, lr}
1fff1dce:	4603      	mov	r3, r0
1fff1dd0:	2600      	movs	r6, #0
1fff1dd2:	4635      	mov	r5, r6
1fff1dd4:	7800      	ldrb	r0, [r0, #0]
1fff1dd6:	f7ff fff2 	bl	1fff1dbe
1fff1dda:	4604      	mov	r4, r0
1fff1ddc:	1e40      	subs	r0, r0, #1
1fff1dde:	282c      	cmp	r0, #44	; 0x2c
1fff1de0:	d84b      	bhi.n	1fff1e7a
1fff1de2:	1c5b      	adds	r3, r3, #1
1fff1de4:	e047      	b.n	1fff1e76
1fff1de6:	2c03      	cmp	r4, #3
1fff1de8:	db25      	blt.n	1fff1e36
1fff1dea:	7818      	ldrb	r0, [r3, #0]
1fff1dec:	f7ff ffe7 	bl	1fff1dbe
1fff1df0:	0087      	lsls	r7, r0, #2
1fff1df2:	7858      	ldrb	r0, [r3, #1]
1fff1df4:	f7ff ffe3 	bl	1fff1dbe
1fff1df8:	0900      	lsrs	r0, r0, #4
1fff1dfa:	4307      	orrs	r7, r0
1fff1dfc:	700f      	strb	r7, [r1, #0]
1fff1dfe:	7858      	ldrb	r0, [r3, #1]
1fff1e00:	f7ff ffdd 	bl	1fff1dbe
1fff1e04:	0107      	lsls	r7, r0, #4
1fff1e06:	7898      	ldrb	r0, [r3, #2]
1fff1e08:	f7ff ffd9 	bl	1fff1dbe
1fff1e0c:	0880      	lsrs	r0, r0, #2
1fff1e0e:	4307      	orrs	r7, r0
1fff1e10:	704f      	strb	r7, [r1, #1]
1fff1e12:	7898      	ldrb	r0, [r3, #2]
1fff1e14:	f7ff ffd3 	bl	1fff1dbe
1fff1e18:	0187      	lsls	r7, r0, #6
1fff1e1a:	78d8      	ldrb	r0, [r3, #3]
1fff1e1c:	f7ff ffcf 	bl	1fff1dbe
1fff1e20:	4307      	orrs	r7, r0
1fff1e22:	708f      	strb	r7, [r1, #2]
1fff1e24:	7808      	ldrb	r0, [r1, #0]
1fff1e26:	784f      	ldrb	r7, [r1, #1]
1fff1e28:	1ced      	adds	r5, r5, #3
1fff1e2a:	19c0      	adds	r0, r0, r7
1fff1e2c:	788f      	ldrb	r7, [r1, #2]
1fff1e2e:	19be      	adds	r6, r7, r6
1fff1e30:	1986      	adds	r6, r0, r6
1fff1e32:	1cc9      	adds	r1, r1, #3
1fff1e34:	e01d      	b.n	1fff1e72
1fff1e36:	2c01      	cmp	r4, #1
1fff1e38:	db0c      	blt.n	1fff1e54
1fff1e3a:	7818      	ldrb	r0, [r3, #0]
1fff1e3c:	f7ff ffbf 	bl	1fff1dbe
1fff1e40:	0087      	lsls	r7, r0, #2
1fff1e42:	7858      	ldrb	r0, [r3, #1]
1fff1e44:	f7ff ffbb 	bl	1fff1dbe
1fff1e48:	0900      	lsrs	r0, r0, #4
1fff1e4a:	4307      	orrs	r7, r0
1fff1e4c:	1c6d      	adds	r5, r5, #1
1fff1e4e:	b2f8      	uxtb	r0, r7
1fff1e50:	700f      	strb	r7, [r1, #0]
1fff1e52:	1986      	adds	r6, r0, r6
1fff1e54:	2c02      	cmp	r4, #2
1fff1e56:	db0c      	blt.n	1fff1e72
1fff1e58:	7858      	ldrb	r0, [r3, #1]
1fff1e5a:	f7ff ffb0 	bl	1fff1dbe
1fff1e5e:	0107      	lsls	r7, r0, #4
1fff1e60:	7898      	ldrb	r0, [r3, #2]
1fff1e62:	f7ff ffac 	bl	1fff1dbe
1fff1e66:	0880      	lsrs	r0, r0, #2
1fff1e68:	4307      	orrs	r7, r0
1fff1e6a:	1c6d      	adds	r5, r5, #1
1fff1e6c:	b2f8      	uxtb	r0, r7
1fff1e6e:	704f      	strb	r7, [r1, #1]
1fff1e70:	1986      	adds	r6, r0, r6
1fff1e72:	1d1b      	adds	r3, r3, #4
1fff1e74:	1ee4      	subs	r4, r4, #3
1fff1e76:	2c00      	cmp	r4, #0
1fff1e78:	dcb5      	bgt.n	1fff1de6
1fff1e7a:	4630      	mov	r0, r6
1fff1e7c:	6015      	str	r5, [r2, #0]
1fff1e7e:	bdf0      	pop	{r4, r5, r6, r7, pc}
1fff1e80:	2800      	cmp	r0, #0
1fff1e82:	d101      	bne.n	1fff1e88
1fff1e84:	2060      	movs	r0, #96	; 0x60
1fff1e86:	4770      	bx	lr
1fff1e88:	3020      	adds	r0, #32
1fff1e8a:	b2c0      	uxtb	r0, r0
1fff1e8c:	4770      	bx	lr
1fff1e8e:	b5f0      	push	{r4, r5, r6, r7, lr}
1fff1e90:	4603      	mov	r3, r0
1fff1e92:	2400      	movs	r4, #0
1fff1e94:	b2d0      	uxtb	r0, r2
1fff1e96:	f7ff fff3 	bl	1fff1e80
1fff1e9a:	7008      	strb	r0, [r1, #0]
1fff1e9c:	1c49      	adds	r1, r1, #1
1fff1e9e:	e02e      	b.n	1fff1efe
1fff1ea0:	2a03      	cmp	r2, #3
1fff1ea2:	db05      	blt.n	1fff1eb0
1fff1ea4:	785d      	ldrb	r5, [r3, #1]
1fff1ea6:	7818      	ldrb	r0, [r3, #0]
1fff1ea8:	789e      	ldrb	r6, [r3, #2]
1fff1eaa:	1940      	adds	r0, r0, r5
1fff1eac:	1934      	adds	r4, r6, r4
1fff1eae:	e005      	b.n	1fff1ebc
1fff1eb0:	2a02      	cmp	r2, #2
1fff1eb2:	d105      	bne.n	1fff1ec0
1fff1eb4:	785d      	ldrb	r5, [r3, #1]
1fff1eb6:	7818      	ldrb	r0, [r3, #0]
1fff1eb8:	462e      	mov	r6, r5
1fff1eba:	1940      	adds	r0, r0, r5
1fff1ebc:	1904      	adds	r4, r0, r4
1fff1ebe:	e002      	b.n	1fff1ec6
1fff1ec0:	781d      	ldrb	r5, [r3, #0]
1fff1ec2:	462e      	mov	r6, r5
1fff1ec4:	192c      	adds	r4, r5, r4
1fff1ec6:	7818      	ldrb	r0, [r3, #0]
1fff1ec8:	0880      	lsrs	r0, r0, #2
1fff1eca:	f7ff ffd9 	bl	1fff1e80
1fff1ece:	7008      	strb	r0, [r1, #0]
1fff1ed0:	7818      	ldrb	r0, [r3, #0]
1fff1ed2:	092f      	lsrs	r7, r5, #4
1fff1ed4:	0780      	lsls	r0, r0, #30
1fff1ed6:	0e80      	lsrs	r0, r0, #26
1fff1ed8:	19c0      	adds	r0, r0, r7
1fff1eda:	f7ff ffd1 	bl	1fff1e80
1fff1ede:	7048      	strb	r0, [r1, #1]
1fff1ee0:	0728      	lsls	r0, r5, #28
1fff1ee2:	0e80      	lsrs	r0, r0, #26
1fff1ee4:	09b5      	lsrs	r5, r6, #6
1fff1ee6:	1940      	adds	r0, r0, r5
1fff1ee8:	f7ff ffca 	bl	1fff1e80
1fff1eec:	7088      	strb	r0, [r1, #2]
1fff1eee:	06b0      	lsls	r0, r6, #26
1fff1ef0:	0e80      	lsrs	r0, r0, #26
1fff1ef2:	f7ff ffc5 	bl	1fff1e80
1fff1ef6:	70c8      	strb	r0, [r1, #3]
1fff1ef8:	1d09      	adds	r1, r1, #4
1fff1efa:	1cdb      	adds	r3, r3, #3
1fff1efc:	1ed2      	subs	r2, r2, #3
1fff1efe:	2a00      	cmp	r2, #0
1fff1f00:	dcce      	bgt.n	1fff1ea0
1fff1f02:	2000      	movs	r0, #0
1fff1f04:	7008      	strb	r0, [r1, #0]
1fff1f06:	4620      	mov	r0, r4
1fff1f08:	bdf0      	pop	{r4, r5, r6, r7, pc}
1fff1f0a:	3ceb      	subs	r4, #235	; 0xeb
1fff1f0c:	4d90      	ldr	r5, [pc, #576]	; (1fff2150)
1fff1f0e:	4453      	add	r3, sl
1fff1f10:	534f      	strh	r7, [r1, r5]
1fff1f12:	2e35      	cmp	r6, #53	; 0x35
1fff1f14:	0030      	movs	r0, r6
1fff1f16:	0202      	lsls	r2, r0, #8
1fff1f18:	0001      	movs	r1, r0
1fff1f1a:	1001      	asrs	r1, r0, #32
1fff1f1c:	ec00 f803 	stc	8, cr15, [r0], {3}
1fff1f20:	0002      	movs	r2, r0
1fff1f22:	0001      	movs	r1, r0
1fff1f24:	0001      	movs	r1, r0
1fff1f26:	0000      	movs	r0, r0
1fff1f28:	5243      	strh	r3, [r0, r1]
1fff1f2a:	2050      	movs	r0, #80	; 0x50
1fff1f2c:	4944      	ldr	r1, [pc, #272]	; (1fff2040)
1fff1f2e:	4153      	adcs	r3, r2
1fff1f30:	4c42      	ldr	r4, [pc, #264]	; (1fff203c)
1fff1f32:	2844      	cmp	r0, #68	; 0x44
	...
1fff1f48:	4946      	ldr	r1, [pc, #280]	; (1fff2064)
1fff1f4a:	4d52      	ldr	r5, [pc, #328]	; (1fff2094)
1fff1f4c:	4157      	adcs	r7, r2
1fff1f4e:	4552      	cmp	r2, sl
1fff1f50:	4942      	ldr	r1, [pc, #264]	; (1fff205c)
1fff1f52:	204e      	movs	r0, #78	; 0x4e
1fff1f54:	bc18      	pop	{r3, r4}
1fff1f56:	9741      	str	r7, [sp, #260]	; 0x104
1fff1f58:	3837      	subs	r0, #55	; 0x37
1fff1f5a:	3837      	subs	r0, #55	; 0x37
1fff1f5c:	0000      	movs	r0, r0
1fff1f5e:	5145      	str	r5, [r0, r5]
1fff1f60:	3a46      	subs	r2, #70	; 0x46
1fff1f62:	0002      	movs	r2, r0
1fff1f64:	8000      	strh	r0, [r0, #0]
1fff1f66:	0000      	movs	r0, r0
1fff1f68:	4520      	cmp	r0, r4
1fff1f6a:	414e      	adcs	r6, r1
1fff1f6c:	4c42      	ldr	r4, [pc, #264]	; (1fff2078)
1fff1f6e:	4f44      	ldr	r7, [pc, #272]	; (1fff2080)
1fff1f70:	004b      	lsls	r3, r1, #1
1fff1f72:	4574      	cmp	r4, lr
1fff1f74:	5473      	strb	r3, [r6, r1]
1fff1f76:	5200      	strh	r0, [r0, r0]
1fff1f78:	5345      	strh	r5, [r0, r5]
1fff1f7a:	4e45      	ldr	r6, [pc, #276]	; (1fff2090)
1fff1f7c:	0044      	lsls	r4, r0, #1
1fff1f7e:	0000      	movs	r0, r0
1fff1f80:	5a5a      	ldrh	r2, [r3, r1]
1fff1f82:	0000      	movs	r0, r0
1fff1f84:	7953      	ldrb	r3, [r2, #5]
1fff1f86:	636e      	str	r6, [r5, #52]	; 0x34
1fff1f88:	7268      	strb	r0, [r5, #9]
1fff1f8a:	6e6f      	ldr	r7, [r5, #100]	; 0x64
1fff1f8c:	7a69      	ldrb	r1, [r5, #9]
1fff1f8e:	6465      	str	r5, [r4, #68]	; 0x44
	...
1fff1fe8:	b510      	push	{r4, lr}
1fff1fea:	f000 f807 	bl	1fff1ffc
1fff1fee:	bd10      	pop	{r4, pc}

# iap()
1fff1ff0:	b510      	push	{r4, lr}
1fff1ff2:	f7fe f925 	bl	1fff0240 # iap2()
1fff1ff6:	bd10      	pop	{r4, pc}

1fff1ff8:	3248      	adds	r2, #72	; 0x48
1fff1ffa:	1fff      	subs	r7, r7, #7
1fff1ffc:	b5fe      	push	{r1, r2, r3, r4, r5, r6, r7, lr}
1fff1ffe:	6801      	ldr	r1, [r0, #0]
1fff2000:	6842      	ldr	r2, [r0, #4]
1fff2002:	0549      	lsls	r1, r1, #21
1fff2004:	0e4f      	lsrs	r7, r1, #25
1fff2006:	2300      	movs	r3, #0
1fff2008:	210f      	movs	r1, #15
1fff200a:	0552      	lsls	r2, r2, #21
1fff200c:	6880      	ldr	r0, [r0, #8]
1fff200e:	46be      	mov	lr, r7
1fff2010:	0e52      	lsrs	r2, r2, #25
1fff2012:	4e8a      	ldr	r6, [pc, #552]	; (1fff223c)
1fff2014:	e011      	b.n	1fff203a
1fff2016:	013c      	lsls	r4, r7, #4
1fff2018:	46a4      	mov	ip, r4
1fff201a:	461c      	mov	r4, r3
1fff201c:	e009      	b.n	1fff2032
1fff201e:	4665      	mov	r5, ip
1fff2020:	4325      	orrs	r5, r4
1fff2022:	00ad      	lsls	r5, r5, #2
1fff2024:	4305      	orrs	r5, r0
1fff2026:	602e      	str	r6, [r5, #0]
1fff2028:	682d      	ldr	r5, [r5, #0]
1fff202a:	42b5      	cmp	r5, r6
1fff202c:	d17e      	bne.n	1fff212c
1fff202e:	1c64      	adds	r4, r4, #1
1fff2030:	b224      	sxth	r4, r4
1fff2032:	428c      	cmp	r4, r1
1fff2034:	ddf3      	ble.n	1fff201e
1fff2036:	1c7f      	adds	r7, r7, #1
1fff2038:	b23f      	sxth	r7, r7
1fff203a:	4297      	cmp	r7, r2
1fff203c:	ddeb      	ble.n	1fff2016
1fff203e:	4674      	mov	r4, lr
1fff2040:	b224      	sxth	r4, r4
1fff2042:	9402      	str	r4, [sp, #8]
1fff2044:	e016      	b.n	1fff2074
1fff2046:	4664      	mov	r4, ip
1fff2048:	0124      	lsls	r4, r4, #4
1fff204a:	9400      	str	r4, [sp, #0]
1fff204c:	461c      	mov	r4, r3
1fff204e:	4e7b      	ldr	r6, [pc, #492]	; (1fff223c)
1fff2050:	e00b      	b.n	1fff206a
1fff2052:	9d00      	ldr	r5, [sp, #0]
1fff2054:	4325      	orrs	r5, r4
1fff2056:	00af      	lsls	r7, r5, #2
1fff2058:	4307      	orrs	r7, r0
1fff205a:	683d      	ldr	r5, [r7, #0]
1fff205c:	42b5      	cmp	r5, r6
1fff205e:	d1e5      	bne.n	1fff202c
1fff2060:	4d76      	ldr	r5, [pc, #472]	; (1fff223c)
1fff2062:	43ed      	mvns	r5, r5
1fff2064:	603d      	str	r5, [r7, #0]
1fff2066:	1c64      	adds	r4, r4, #1
1fff2068:	b224      	sxth	r4, r4
1fff206a:	428c      	cmp	r4, r1
1fff206c:	ddf1      	ble.n	1fff2052
1fff206e:	4664      	mov	r4, ip
1fff2070:	1c64      	adds	r4, r4, #1
1fff2072:	b224      	sxth	r4, r4
1fff2074:	46a4      	mov	ip, r4
1fff2076:	4294      	cmp	r4, r2
1fff2078:	dde5      	ble.n	1fff2046
1fff207a:	b214      	sxth	r4, r2
1fff207c:	9401      	str	r4, [sp, #4]
1fff207e:	e025      	b.n	1fff20cc
1fff2080:	4664      	mov	r4, ip
1fff2082:	0124      	lsls	r4, r4, #4
1fff2084:	460d      	mov	r5, r1
1fff2086:	9400      	str	r4, [sp, #0]
1fff2088:	e01b      	b.n	1fff20c2
1fff208a:	9c00      	ldr	r4, [sp, #0]
1fff208c:	432c      	orrs	r4, r5
1fff208e:	00a4      	lsls	r4, r4, #2
1fff2090:	4304      	orrs	r4, r0
1fff2092:	6826      	ldr	r6, [r4, #0]
1fff2094:	4f69      	ldr	r7, [pc, #420]	; (1fff223c)
1fff2096:	43ff      	mvns	r7, r7
1fff2098:	42be      	cmp	r6, r7
1fff209a:	d1c7      	bne.n	1fff202c
1fff209c:	0077      	lsls	r7, r6, #1
1fff209e:	6027      	str	r7, [r4, #0]
1fff20a0:	6826      	ldr	r6, [r4, #0]
1fff20a2:	42be      	cmp	r6, r7
1fff20a4:	d1c2      	bne.n	1fff202c
1fff20a6:	6826      	ldr	r6, [r4, #0]
1fff20a8:	42be      	cmp	r6, r7
1fff20aa:	d1bf      	bne.n	1fff202c
1fff20ac:	6826      	ldr	r6, [r4, #0]
1fff20ae:	42be      	cmp	r6, r7
1fff20b0:	d1bc      	bne.n	1fff202c
1fff20b2:	6826      	ldr	r6, [r4, #0]
1fff20b4:	42be      	cmp	r6, r7
1fff20b6:	d1b9      	bne.n	1fff202c
1fff20b8:	6824      	ldr	r4, [r4, #0]
1fff20ba:	42bc      	cmp	r4, r7
1fff20bc:	d1b6      	bne.n	1fff202c
1fff20be:	1e6d      	subs	r5, r5, #1
1fff20c0:	b22d      	sxth	r5, r5
1fff20c2:	429d      	cmp	r5, r3
1fff20c4:	dae1      	bge.n	1fff208a
1fff20c6:	4664      	mov	r4, ip
1fff20c8:	1e64      	subs	r4, r4, #1
1fff20ca:	b224      	sxth	r4, r4
1fff20cc:	46a4      	mov	ip, r4
1fff20ce:	4574      	cmp	r4, lr
1fff20d0:	dad6      	bge.n	1fff2080
1fff20d2:	9c01      	ldr	r4, [sp, #4]
1fff20d4:	e024      	b.n	1fff2120
1fff20d6:	4664      	mov	r4, ip
1fff20d8:	0124      	lsls	r4, r4, #4
1fff20da:	460d      	mov	r5, r1
1fff20dc:	9400      	str	r4, [sp, #0]
1fff20de:	e01a      	b.n	1fff2116
1fff20e0:	9c00      	ldr	r4, [sp, #0]
1fff20e2:	432c      	orrs	r4, r5
1fff20e4:	00a4      	lsls	r4, r4, #2
1fff20e6:	4304      	orrs	r4, r0
1fff20e8:	6826      	ldr	r6, [r4, #0]
1fff20ea:	4f54      	ldr	r7, [pc, #336]	; (1fff223c)
1fff20ec:	42be      	cmp	r6, r7
1fff20ee:	d19d      	bne.n	1fff202c
1fff20f0:	0877      	lsrs	r7, r6, #1
1fff20f2:	6027      	str	r7, [r4, #0]
1fff20f4:	6826      	ldr	r6, [r4, #0]
1fff20f6:	42be      	cmp	r6, r7
1fff20f8:	d198      	bne.n	1fff202c
1fff20fa:	6826      	ldr	r6, [r4, #0]
1fff20fc:	42be      	cmp	r6, r7
1fff20fe:	d195      	bne.n	1fff202c
1fff2100:	6826      	ldr	r6, [r4, #0]
1fff2102:	42be      	cmp	r6, r7
1fff2104:	d192      	bne.n	1fff202c
1fff2106:	6826      	ldr	r6, [r4, #0]
1fff2108:	42be      	cmp	r6, r7
1fff210a:	d18f      	bne.n	1fff202c
1fff210c:	6824      	ldr	r4, [r4, #0]
1fff210e:	42bc      	cmp	r4, r7
1fff2110:	d18c      	bne.n	1fff202c
1fff2112:	1e6d      	subs	r5, r5, #1
1fff2114:	b22d      	sxth	r5, r5
1fff2116:	429d      	cmp	r5, r3
1fff2118:	dae2      	bge.n	1fff20e0
1fff211a:	4664      	mov	r4, ip
1fff211c:	1e64      	subs	r4, r4, #1
1fff211e:	b224      	sxth	r4, r4
1fff2120:	46a4      	mov	ip, r4
1fff2122:	4574      	cmp	r4, lr
1fff2124:	dad7      	bge.n	1fff20d6
1fff2126:	469c      	mov	ip, r3
1fff2128:	4f44      	ldr	r7, [pc, #272]	; (1fff223c)
1fff212a:	e000      	b.n	1fff212e
1fff212c:	e077      	b.n	1fff221e
1fff212e:	43ff      	mvns	r7, r7
1fff2130:	e016      	b.n	1fff2160
1fff2132:	9c02      	ldr	r4, [sp, #8]
1fff2134:	e00e      	b.n	1fff2154
1fff2136:	0125      	lsls	r5, r4, #4
1fff2138:	4666      	mov	r6, ip
1fff213a:	4335      	orrs	r5, r6
1fff213c:	00ad      	lsls	r5, r5, #2
1fff213e:	4305      	orrs	r5, r0
1fff2140:	682e      	ldr	r6, [r5, #0]
1fff2142:	42be      	cmp	r6, r7
1fff2144:	d16b      	bne.n	1fff221e
1fff2146:	4e3d      	ldr	r6, [pc, #244]	; (1fff223c)
1fff2148:	602e      	str	r6, [r5, #0]
1fff214a:	682d      	ldr	r5, [r5, #0]
1fff214c:	42b5      	cmp	r5, r6
1fff214e:	d166      	bne.n	1fff221e
1fff2150:	1c64      	adds	r4, r4, #1
1fff2152:	b224      	sxth	r4, r4
1fff2154:	4294      	cmp	r4, r2
1fff2156:	ddee      	ble.n	1fff2136
1fff2158:	4664      	mov	r4, ip
1fff215a:	1c64      	adds	r4, r4, #1
1fff215c:	b224      	sxth	r4, r4
1fff215e:	46a4      	mov	ip, r4
1fff2160:	458c      	cmp	ip, r1
1fff2162:	dde6      	ble.n	1fff2132
1fff2164:	469c      	mov	ip, r3
1fff2166:	4f35      	ldr	r7, [pc, #212]	; (1fff223c)
1fff2168:	e017      	b.n	1fff219a
1fff216a:	9c02      	ldr	r4, [sp, #8]
1fff216c:	e00f      	b.n	1fff218e
1fff216e:	0125      	lsls	r5, r4, #4
1fff2170:	4666      	mov	r6, ip
1fff2172:	4335      	orrs	r5, r6
1fff2174:	00ad      	lsls	r5, r5, #2
1fff2176:	4305      	orrs	r5, r0
1fff2178:	682e      	ldr	r6, [r5, #0]
1fff217a:	42be      	cmp	r6, r7
1fff217c:	d14f      	bne.n	1fff221e
1fff217e:	4e2f      	ldr	r6, [pc, #188]	; (1fff223c)
1fff2180:	43f6      	mvns	r6, r6
1fff2182:	602e      	str	r6, [r5, #0]
1fff2184:	682d      	ldr	r5, [r5, #0]
1fff2186:	42b5      	cmp	r5, r6
1fff2188:	d149      	bne.n	1fff221e
1fff218a:	1c64      	adds	r4, r4, #1
1fff218c:	b224      	sxth	r4, r4
1fff218e:	4294      	cmp	r4, r2
1fff2190:	dded      	ble.n	1fff216e
1fff2192:	4664      	mov	r4, ip
1fff2194:	1c64      	adds	r4, r4, #1
1fff2196:	b224      	sxth	r4, r4
1fff2198:	46a4      	mov	ip, r4
1fff219a:	458c      	cmp	ip, r1
1fff219c:	dde5      	ble.n	1fff216a
1fff219e:	469c      	mov	ip, r3
1fff21a0:	e015      	b.n	1fff21ce
1fff21a2:	9c02      	ldr	r4, [sp, #8]
1fff21a4:	e00d      	b.n	1fff21c2
1fff21a6:	0125      	lsls	r5, r4, #4
1fff21a8:	4666      	mov	r6, ip
1fff21aa:	4335      	orrs	r5, r6
1fff21ac:	00ad      	lsls	r5, r5, #2
1fff21ae:	4305      	orrs	r5, r0
1fff21b0:	602f      	str	r7, [r5, #0]
1fff21b2:	682e      	ldr	r6, [r5, #0]
1fff21b4:	42be      	cmp	r6, r7
1fff21b6:	d132      	bne.n	1fff221e
1fff21b8:	4e20      	ldr	r6, [pc, #128]	; (1fff223c)
1fff21ba:	43f6      	mvns	r6, r6
1fff21bc:	602e      	str	r6, [r5, #0]
1fff21be:	1c64      	adds	r4, r4, #1
1fff21c0:	b224      	sxth	r4, r4
1fff21c2:	4294      	cmp	r4, r2
1fff21c4:	ddef      	ble.n	1fff21a6
1fff21c6:	4664      	mov	r4, ip
1fff21c8:	1c64      	adds	r4, r4, #1
1fff21ca:	b224      	sxth	r4, r4
1fff21cc:	46a4      	mov	ip, r4
1fff21ce:	458c      	cmp	ip, r1
1fff21d0:	dde7      	ble.n	1fff21a2
1fff21d2:	460c      	mov	r4, r1
1fff21d4:	e014      	b.n	1fff2200
1fff21d6:	9d01      	ldr	r5, [sp, #4]
1fff21d8:	e00e      	b.n	1fff21f8
1fff21da:	012e      	lsls	r6, r5, #4
1fff21dc:	4326      	orrs	r6, r4
1fff21de:	00b6      	lsls	r6, r6, #2
1fff21e0:	4306      	orrs	r6, r0
1fff21e2:	46b4      	mov	ip, r6
1fff21e4:	6836      	ldr	r6, [r6, #0]
1fff21e6:	4f15      	ldr	r7, [pc, #84]	; (1fff223c)
1fff21e8:	43ff      	mvns	r7, r7
1fff21ea:	42be      	cmp	r6, r7
1fff21ec:	d117      	bne.n	1fff221e
1fff21ee:	0076      	lsls	r6, r6, #1
1fff21f0:	4667      	mov	r7, ip
1fff21f2:	603e      	str	r6, [r7, #0]
1fff21f4:	1e6d      	subs	r5, r5, #1
1fff21f6:	b22d      	sxth	r5, r5
1fff21f8:	4575      	cmp	r5, lr
1fff21fa:	daee      	bge.n	1fff21da
1fff21fc:	1e64      	subs	r4, r4, #1
1fff21fe:	b224      	sxth	r4, r4
1fff2200:	429c      	cmp	r4, r3
1fff2202:	dae8      	bge.n	1fff21d6
1fff2204:	4f0d      	ldr	r7, [pc, #52]	; (1fff223c)
1fff2206:	43ff      	mvns	r7, r7
1fff2208:	e013      	b.n	1fff2232
1fff220a:	9c02      	ldr	r4, [sp, #8]
1fff220c:	e00d      	b.n	1fff222a
1fff220e:	0125      	lsls	r5, r4, #4
1fff2210:	431d      	orrs	r5, r3
1fff2212:	00ad      	lsls	r5, r5, #2
1fff2214:	4305      	orrs	r5, r0
1fff2216:	602f      	str	r7, [r5, #0]
1fff2218:	682e      	ldr	r6, [r5, #0]
1fff221a:	42be      	cmp	r6, r7
1fff221c:	d001      	beq.n	1fff2222
1fff221e:	2001      	movs	r0, #1
1fff2220:	bdfe      	pop	{r1, r2, r3, r4, r5, r6, r7, pc}
1fff2222:	4e06      	ldr	r6, [pc, #24]	; (1fff223c)
1fff2224:	602e      	str	r6, [r5, #0]
1fff2226:	1c64      	adds	r4, r4, #1
1fff2228:	b224      	sxth	r4, r4
1fff222a:	4294      	cmp	r4, r2
1fff222c:	ddef      	ble.n	1fff220e
1fff222e:	1c5b      	adds	r3, r3, #1
1fff2230:	b21b      	sxth	r3, r3
1fff2232:	428b      	cmp	r3, r1
1fff2234:	dde9      	ble.n	1fff220a
1fff2236:	2000      	movs	r0, #0
1fff2238:	bdfe      	pop	{r1, r2, r3, r4, r5, r6, r7, pc}
1fff223a:	0000      	movs	r0, r0
1fff223c:	aaaa      	add	r2, sp, #680	; 0x2a8
1fff223e:	aaaa      	add	r2, sp, #680	; 0x2a8
1fff2240:	2200      	movs	r2, #0
1fff2242:	e001      	b.n	1fff2248
1fff2244:	c004      	stmia	r0!, {r2}
1fff2246:	1f09      	subs	r1, r1, #4
1fff2248:	2900      	cmp	r1, #0
1fff224a:	d1fb      	bne.n	1fff2244
1fff224c:	4770      	bx	lr
1fff224e:	4281      	cmp	r1, r0
1fff2250:	d005      	beq.n	1fff225e
1fff2252:	e002      	b.n	1fff225a
1fff2254:	c808      	ldmia	r0!, {r3}
1fff2256:	1f12      	subs	r2, r2, #4
1fff2258:	c108      	stmia	r1!, {r3}
1fff225a:	2a00      	cmp	r2, #0
1fff225c:	d1fa      	bne.n	1fff2254
1fff225e:	4770      	bx	lr
1fff2260:	b5f7      	push	{r0, r1, r2, r4, r5, r6, r7, lr}
1fff2262:	4605      	mov	r5, r0
1fff2264:	2001      	movs	r0, #1
1fff2266:	0240      	lsls	r0, r0, #9
1fff2268:	460e      	mov	r6, r1
1fff226a:	4285      	cmp	r5, r0
1fff226c:	d329      	bcc.n	1fff22c2
1fff226e:	0080      	lsls	r0, r0, #2
1fff2270:	4285      	cmp	r5, r0
1fff2272:	d227      	bcs.n	1fff22c4
1fff2274:	2400      	movs	r4, #0
1fff2276:	4f87      	ldr	r7, [pc, #540]	; (1fff2494)
1fff2278:	e020      	b.n	1fff22bc
1fff227a:	4987      	ldr	r1, [pc, #540]	; (1fff2498)
1fff227c:	1928      	adds	r0, r5, r4
1fff227e:	1841      	adds	r1, r0, r1
1fff2280:	39ff      	subs	r1, #255	; 0xff
1fff2282:	39ff      	subs	r1, #255	; 0xff
1fff2284:	5d32      	ldrb	r2, [r6, r4]
1fff2286:	3902      	subs	r1, #2
1fff2288:	700a      	strb	r2, [r1, #0]
1fff228a:	5d31      	ldrb	r1, [r6, r4]
1fff228c:	29e5      	cmp	r1, #229	; 0xe5
1fff228e:	d114      	bne.n	1fff22ba
1fff2290:	4982      	ldr	r1, [pc, #520]	; (1fff249c)
1fff2292:	4a83      	ldr	r2, [pc, #524]	; (1fff24a0)
1fff2294:	6809      	ldr	r1, [r1, #0]
1fff2296:	6812      	ldr	r2, [r2, #0]
1fff2298:	4291      	cmp	r1, r2
1fff229a:	d003      	beq.n	1fff22a4
1fff229c:	4a81      	ldr	r2, [pc, #516]	; (1fff24a4)
1fff229e:	6812      	ldr	r2, [r2, #0]
1fff22a0:	4291      	cmp	r1, r2
1fff22a2:	d10a      	bne.n	1fff22ba
1fff22a4:	2131      	movs	r1, #49	; 0x31
1fff22a6:	0149      	lsls	r1, r1, #5
1fff22a8:	4288      	cmp	r0, r1
1fff22aa:	d106      	bne.n	1fff22ba
1fff22ac:	6838      	ldr	r0, [r7, #0]
1fff22ae:	2800      	cmp	r0, #0
1fff22b0:	d103      	bne.n	1fff22ba
1fff22b2:	f000 f9b0 	bl	1fff2616
1fff22b6:	2001      	movs	r0, #1
1fff22b8:	6038      	str	r0, [r7, #0]
1fff22ba:	1c64      	adds	r4, r4, #1
1fff22bc:	9802      	ldr	r0, [sp, #8]
1fff22be:	4284      	cmp	r4, r0
1fff22c0:	d3db      	bcc.n	1fff227a
1fff22c2:	bdfe      	pop	{r1, r2, r3, r4, r5, r6, r7, pc}
1fff22c4:	1a28      	subs	r0, r5, r0
1fff22c6:	4631      	mov	r1, r6
1fff22c8:	9a02      	ldr	r2, [sp, #8]
1fff22ca:	f000 f975 	bl	1fff25b8
1fff22ce:	bdfe      	pop	{r1, r2, r3, r4, r5, r6, r7, pc}
1fff22d0:	b5f0      	push	{r4, r5, r6, r7, lr}
1fff22d2:	4c75      	ldr	r4, [pc, #468]	; (1fff24a8)
1fff22d4:	2700      	movs	r7, #0
1fff22d6:	4d75      	ldr	r5, [pc, #468]	; (1fff24ac)
1fff22d8:	6824      	ldr	r4, [r4, #0]
1fff22da:	463b      	mov	r3, r7
1fff22dc:	1965      	adds	r5, r4, r5
1fff22de:	e03d      	b.n	1fff235c
1fff22e0:	2401      	movs	r4, #1
1fff22e2:	0264      	lsls	r4, r4, #9
1fff22e4:	42a0      	cmp	r0, r4
1fff22e6:	d217      	bcs.n	1fff2318
1fff22e8:	2813      	cmp	r0, #19
1fff22ea:	d009      	beq.n	1fff2300
1fff22ec:	2814      	cmp	r0, #20
1fff22ee:	d009      	beq.n	1fff2304
1fff22f0:	1fc4      	subs	r4, r0, #7
1fff22f2:	3cff      	subs	r4, #255	; 0xff
1fff22f4:	3cf8      	subs	r4, #248	; 0xf8
1fff22f6:	d008      	beq.n	1fff230a
1fff22f8:	2c01      	cmp	r4, #1
1fff22fa:	d108      	bne.n	1fff230e
1fff22fc:	24aa      	movs	r4, #170	; 0xaa
1fff22fe:	e02a      	b.n	1fff2356
1fff2300:	0a6c      	lsrs	r4, r5, #9
1fff2302:	e000      	b.n	1fff2306
1fff2304:	0c6c      	lsrs	r4, r5, #17
1fff2306:	b2e4      	uxtb	r4, r4
1fff2308:	e025      	b.n	1fff2356
1fff230a:	2455      	movs	r4, #85	; 0x55
1fff230c:	e023      	b.n	1fff2356
1fff230e:	281d      	cmp	r0, #29
1fff2310:	d820      	bhi.n	1fff2354
1fff2312:	4c67      	ldr	r4, [pc, #412]	; (1fff24b0)
1fff2314:	5c24      	ldrb	r4, [r4, r0]
1fff2316:	e01e      	b.n	1fff2356
1fff2318:	2401      	movs	r4, #1
1fff231a:	02e4      	lsls	r4, r4, #11
1fff231c:	42a0      	cmp	r0, r4
1fff231e:	d205      	bcs.n	1fff232c
1fff2320:	4c5d      	ldr	r4, [pc, #372]	; (1fff2498)
1fff2322:	1824      	adds	r4, r4, r0
1fff2324:	3cff      	subs	r4, #255	; 0xff
1fff2326:	3cff      	subs	r4, #255	; 0xff
1fff2328:	3c02      	subs	r4, #2
1fff232a:	e011      	b.n	1fff2350
1fff232c:	4c5b      	ldr	r4, [pc, #364]	; (1fff249c)
1fff232e:	4e61      	ldr	r6, [pc, #388]	; (1fff24b4)
1fff2330:	6824      	ldr	r4, [r4, #0]
1fff2332:	6836      	ldr	r6, [r6, #0]
1fff2334:	42b4      	cmp	r4, r6
1fff2336:	d00d      	beq.n	1fff2354
1fff2338:	4e59      	ldr	r6, [pc, #356]	; (1fff24a0)
1fff233a:	6836      	ldr	r6, [r6, #0]
1fff233c:	42b4      	cmp	r4, r6
1fff233e:	d009      	beq.n	1fff2354
1fff2340:	4e58      	ldr	r6, [pc, #352]	; (1fff24a4)
1fff2342:	6836      	ldr	r6, [r6, #0]
1fff2344:	42b4      	cmp	r4, r6
1fff2346:	d005      	beq.n	1fff2354
1fff2348:	260f      	movs	r6, #15
1fff234a:	183c      	adds	r4, r7, r0
1fff234c:	02f6      	lsls	r6, r6, #11
1fff234e:	19a4      	adds	r4, r4, r6
1fff2350:	7824      	ldrb	r4, [r4, #0]
1fff2352:	e000      	b.n	1fff2356
1fff2354:	2400      	movs	r4, #0
1fff2356:	54cc      	strb	r4, [r1, r3]
1fff2358:	1c40      	adds	r0, r0, #1
1fff235a:	1c5b      	adds	r3, r3, #1
1fff235c:	4293      	cmp	r3, r2
1fff235e:	d3bf      	bcc.n	1fff22e0
1fff2360:	bdf0      	pop	{r4, r5, r6, r7, pc}

# <isp_bootloader_usb2>
1fff2362:	b5f8      	push	{r3, r4, r5, r6, r7, lr}
1fff2364:	494b      	ldr	r1, [pc, #300]	; (1fff2494)
1fff2366:	2000      	movs	r0, #0
1fff2368:	6008      	str	r0, [r1, #0]
1fff236a:	4a53      	ldr	r2, [pc, #332]	; (1fff24b8)
1fff236c:	4953      	ldr	r1, [pc, #332]	; (1fff24bc)
1fff236e:	4854      	ldr	r0, [pc, #336]	; (1fff24c0)
1fff2370:	f7ff ff6d 	bl	1fff224e
1fff2374:	4953      	ldr	r1, [pc, #332]	; (1fff24c4)
1fff2376:	4854      	ldr	r0, [pc, #336]	; (1fff24c8)
1fff2378:	f7ff ff62 	bl	1fff2240
1fff237c:	4953      	ldr	r1, [pc, #332]	; (1fff24cc)
1fff237e:	6808      	ldr	r0, [r1, #0]
1fff2380:	2240      	movs	r2, #64	; 0x40
1fff2382:	4310      	orrs	r0, r2
1fff2384:	6008      	str	r0, [r1, #0]
1fff2386:	4a53      	ldr	r2, [pc, #332]	; (1fff24d4)
1fff2388:	4851      	ldr	r0, [pc, #324]	; (1fff24d0)
1fff238a:	8010      	strh	r0, [r2, #0]
1fff238c:	4852      	ldr	r0, [pc, #328]	; (1fff24d8)
1fff238e:	4d42      	ldr	r5, [pc, #264]	; (1fff2498)
1fff2390:	6800      	ldr	r0, [r0, #0]
1fff2392:	8050      	strh	r0, [r2, #2]
1fff2394:	4851      	ldr	r0, [pc, #324]	; (1fff24dc)
1fff2396:	6800      	ldr	r0, [r0, #0]
1fff2398:	8090      	strh	r0, [r2, #4]
1fff239a:	4851      	ldr	r0, [pc, #324]	; (1fff24e0)
1fff239c:	6090      	str	r0, [r2, #8]
1fff239e:	4851      	ldr	r0, [pc, #324]	; (1fff24e4)
1fff23a0:	60d0      	str	r0, [r2, #12]
1fff23a2:	1548      	asrs	r0, r1, #21
1fff23a4:	6150      	str	r0, [r2, #20]
1fff23a6:	4840      	ldr	r0, [pc, #256]	; (1fff24a8)
1fff23a8:	6801      	ldr	r1, [r0, #0]
1fff23aa:	4840      	ldr	r0, [pc, #256]	; (1fff24ac)
1fff23ac:	1808      	adds	r0, r1, r0
1fff23ae:	0a43      	lsrs	r3, r0, #9
1fff23b0:	6113      	str	r3, [r2, #16]
1fff23b2:	6190      	str	r0, [r2, #24]
1fff23b4:	484c      	ldr	r0, [pc, #304]	; (1fff24e8)
1fff23b6:	6210      	str	r0, [r2, #32]
1fff23b8:	484c      	ldr	r0, [pc, #304]	; (1fff24ec)
1fff23ba:	61d0      	str	r0, [r2, #28]
1fff23bc:	20f8      	movs	r0, #248	; 0xf8
1fff23be:	7028      	strb	r0, [r5, #0]
1fff23c0:	20ff      	movs	r0, #255	; 0xff
1fff23c2:	7068      	strb	r0, [r5, #1]
1fff23c4:	2103      	movs	r1, #3
1fff23c6:	70a8      	strb	r0, [r5, #2]
1fff23c8:	085f      	lsrs	r7, r3, #1
1fff23ca:	4608      	mov	r0, r1
1fff23cc:	1e7e      	subs	r6, r7, #1
1fff23ce:	e00f      	b.n	1fff23f0
1fff23d0:	4286      	cmp	r6, r0
1fff23d2:	d101      	bne.n	1fff23d8
1fff23d4:	4a46      	ldr	r2, [pc, #280]	; (1fff24f0)
1fff23d6:	e000      	b.n	1fff23da
1fff23d8:	1c42      	adds	r2, r0, #1
1fff23da:	0113      	lsls	r3, r2, #4
1fff23dc:	0504      	lsls	r4, r0, #20
1fff23de:	0f24      	lsrs	r4, r4, #28
1fff23e0:	4323      	orrs	r3, r4
1fff23e2:	5468      	strb	r0, [r5, r1]
1fff23e4:	186c      	adds	r4, r5, r1
1fff23e6:	0912      	lsrs	r2, r2, #4
1fff23e8:	7063      	strb	r3, [r4, #1]
1fff23ea:	1cc9      	adds	r1, r1, #3
1fff23ec:	70a2      	strb	r2, [r4, #2]
1fff23ee:	1c80      	adds	r0, r0, #2
1fff23f0:	4287      	cmp	r7, r0
1fff23f2:	d8ed      	bhi.n	1fff23d0
1fff23f4:	2000      	movs	r0, #0
1fff23f6:	4b3f      	ldr	r3, [pc, #252]	; (1fff24f4)
1fff23f8:	2101      	movs	r1, #1
1fff23fa:	0289      	lsls	r1, r1, #10
1fff23fc:	182c      	adds	r4, r5, r0
1fff23fe:	5c1a      	ldrb	r2, [r3, r0]
1fff2400:	1864      	adds	r4, r4, r1
1fff2402:	1c40      	adds	r0, r0, #1
1fff2404:	7022      	strb	r2, [r4, #0]
1fff2406:	2840      	cmp	r0, #64	; 0x40
1fff2408:	d3f8      	bcc.n	1fff23fc
1fff240a:	4824      	ldr	r0, [pc, #144]	; (1fff249c)
1fff240c:	4a29      	ldr	r2, [pc, #164]	; (1fff24b4)
1fff240e:	6800      	ldr	r0, [r0, #0]
1fff2410:	6813      	ldr	r3, [r2, #0]
1fff2412:	4e23      	ldr	r6, [pc, #140]	; (1fff24a0)
1fff2414:	4f23      	ldr	r7, [pc, #140]	; (1fff24a4)
1fff2416:	4298      	cmp	r0, r3
1fff2418:	d005      	beq.n	1fff2426
1fff241a:	6833      	ldr	r3, [r6, #0]
1fff241c:	4298      	cmp	r0, r3
1fff241e:	d002      	beq.n	1fff2426
1fff2420:	683b      	ldr	r3, [r7, #0]
1fff2422:	4298      	cmp	r0, r3
1fff2424:	d11a      	bne.n	1fff245c
1fff2426:	6812      	ldr	r2, [r2, #0]
1fff2428:	4b33      	ldr	r3, [pc, #204]	; (1fff24f8)
1fff242a:	4290      	cmp	r0, r2
1fff242c:	d101      	bne.n	1fff2432
1fff242e:	2231      	movs	r2, #49	; 0x31
1fff2430:	70da      	strb	r2, [r3, #3]
1fff2432:	6832      	ldr	r2, [r6, #0]
1fff2434:	4290      	cmp	r0, r2
1fff2436:	d101      	bne.n	1fff243c
1fff2438:	2232      	movs	r2, #50	; 0x32
1fff243a:	70da      	strb	r2, [r3, #3]
1fff243c:	683a      	ldr	r2, [r7, #0]
1fff243e:	4290      	cmp	r0, r2
1fff2440:	d101      	bne.n	1fff2446
1fff2442:	2033      	movs	r0, #51	; 0x33
1fff2444:	70d8      	strb	r0, [r3, #3]
1fff2446:	4a2d      	ldr	r2, [pc, #180]	; (1fff24fc)
1fff2448:	2004      	movs	r0, #4
1fff244a:	1813      	adds	r3, r2, r0
1fff244c:	182c      	adds	r4, r5, r0
1fff244e:	3b20      	subs	r3, #32
1fff2450:	1864      	adds	r4, r4, r1
1fff2452:	7f1b      	ldrb	r3, [r3, #28]
1fff2454:	1c40      	adds	r0, r0, #1
1fff2456:	7023      	strb	r3, [r4, #0]
1fff2458:	280b      	cmp	r0, #11
1fff245a:	d3f6      	bcc.n	1fff244a
1fff245c:	4812      	ldr	r0, [pc, #72]	; (1fff24a8)
1fff245e:	4926      	ldr	r1, [pc, #152]	; (1fff24f8)
1fff2460:	6800      	ldr	r0, [r0, #0]
1fff2462:	1c40      	adds	r0, r0, #1
1fff2464:	3120      	adds	r1, #32
1fff2466:	7708      	strb	r0, [r1, #28]
1fff2468:	0a02      	lsrs	r2, r0, #8
1fff246a:	774a      	strb	r2, [r1, #29]
1fff246c:	0c02      	lsrs	r2, r0, #16
1fff246e:	778a      	strb	r2, [r1, #30]
1fff2470:	0e00      	lsrs	r0, r0, #24
1fff2472:	4a16      	ldr	r2, [pc, #88]	; (1fff24cc)
1fff2474:	77c8      	strb	r0, [r1, #31]
1fff2476:	6811      	ldr	r1, [r2, #0]
1fff2478:	2040      	movs	r0, #64	; 0x40
1fff247a:	4381      	bics	r1, r0
1fff247c:	6011      	str	r1, [r2, #0]
1fff247e:	4820      	ldr	r0, [pc, #128]	; (1fff2500)
1fff2480:	2108      	movs	r1, #8
1fff2482:	8001      	strh	r1, [r0, #0]
1fff2484:	4913      	ldr	r1, [pc, #76]	; (1fff24d4)
1fff2486:	6041      	str	r1, [r0, #4]
1fff2488:	f000 fa60 	bl	1fff294c
1fff248c:	2001      	movs	r0, #1
1fff248e:	f000 fa77 	bl	1fff2980
1fff2492:	e7fe      	b.n	1fff2492
1fff2494:	0064      	lsls	r4, r4, #1
1fff2496:	1000      	asrs	r0, r0, #32
1fff2498:	0270      	lsls	r0, r6, #9
1fff249a:	1000      	asrs	r0, r0, #32
1fff249c:	0184      	lsls	r4, r0, #6
1fff249e:	1000      	asrs	r0, r0, #32
1fff24a0:	0190      	lsls	r0, r2, #6
1fff24a2:	1fff      	subs	r7, r7, #7
1fff24a4:	0194      	lsls	r4, r2, #6
1fff24a6:	1fff      	subs	r7, r7, #7
1fff24a8:	045c      	lsls	r4, r3, #17
1fff24aa:	0000      	movs	r0, r0
1fff24ac:	0801      	lsrs	r1, r0, #32
1fff24ae:	0000      	movs	r0, r0
1fff24b0:	1f0a      	subs	r2, r1, #4
1fff24b2:	1fff      	subs	r7, r7, #7
1fff24b4:	0198      	lsls	r0, r3, #6
1fff24b6:	1fff      	subs	r7, r7, #7
1fff24b8:	0014      	movs	r4, r2
1fff24ba:	0000      	movs	r0, r0
1fff24bc:	025c      	lsls	r4, r3, #9
1fff24be:	1000      	asrs	r0, r0, #32
1fff24c0:	0050      	lsls	r0, r2, #1
1fff24c2:	1000      	asrs	r0, r0, #32
1fff24c4:	0724      	lsls	r4, r4, #28
1fff24c6:	0000      	movs	r0, r0
1fff24c8:	0270      	lsls	r0, r6, #9
1fff24ca:	1000      	asrs	r0, r0, #32
1fff24cc:	c000      	stmia	r0!, {}
1fff24ce:	4003      	ands	r3, r0
1fff24d0:	04cc      	lsls	r4, r1, #19
1fff24d2:	0000      	movs	r0, r0
1fff24d4:	0870      	lsrs	r0, r6, #1
1fff24d6:	1000      	asrs	r0, r0, #32
1fff24d8:	05e4      	lsls	r4, r4, #23
1fff24da:	0000      	movs	r0, r0
1fff24dc:	0434      	lsls	r4, r6, #16
1fff24de:	0000      	movs	r0, r0
1fff24e0:	32c6      	adds	r2, #198	; 0xc6
1fff24e2:	1fff      	subs	r7, r7, #7
1fff24e4:	321c      	adds	r2, #28
1fff24e6:	1fff      	subs	r7, r7, #7
1fff24e8:	22d1      	movs	r2, #209	; 0xd1
1fff24ea:	1fff      	subs	r7, r7, #7
1fff24ec:	2261      	movs	r2, #97	; 0x61
1fff24ee:	1fff      	subs	r7, r7, #7
1fff24f0:	0fff      	lsrs	r7, r7, #31
1fff24f2:	0000      	movs	r0, r0
1fff24f4:	1f28      	subs	r0, r5, #4
1fff24f6:	1fff      	subs	r7, r7, #7
1fff24f8:	0670      	lsls	r0, r6, #25
1fff24fa:	1000      	asrs	r0, r0, #32
1fff24fc:	1f68      	subs	r0, r5, #5
1fff24fe:	1fff      	subs	r7, r7, #7
1fff2500:	025c      	lsls	r4, r3, #9
1fff2502:	1000      	asrs	r0, r0, #32
1fff2504:	b570      	push	{r4, r5, r6, lr}
1fff2506:	4c52      	ldr	r4, [pc, #328]	; (1fff2650)
1fff2508:	2533      	movs	r5, #51	; 0x33
1fff250a:	6025      	str	r5, [r4, #0]
1fff250c:	1d25      	adds	r5, r4, #4
1fff250e:	c50e      	stmia	r5!, {r1, r2, r3}
1fff2510:	6120      	str	r0, [r4, #16]
1fff2512:	4950      	ldr	r1, [pc, #320]	; (1fff2654)
1fff2514:	4620      	mov	r0, r4
1fff2516:	f7ff fd6b 	bl	1fff1ff0
1fff251a:	bd70      	pop	{r4, r5, r6, pc}
1fff251c:	b510      	push	{r4, lr}
1fff251e:	4b4c      	ldr	r3, [pc, #304]	; (1fff2650)
1fff2520:	2432      	movs	r4, #50	; 0x32
1fff2522:	601c      	str	r4, [r3, #0]
1fff2524:	1d1b      	adds	r3, r3, #4
1fff2526:	c307      	stmia	r3!, {r0, r1, r2}
1fff2528:	494a      	ldr	r1, [pc, #296]	; (1fff2654)
1fff252a:	4849      	ldr	r0, [pc, #292]	; (1fff2650)
1fff252c:	f7ff fd60 	bl	1fff1ff0
1fff2530:	bd10      	pop	{r4, pc}
1fff2532:	b510      	push	{r4, lr}
1fff2534:	4b46      	ldr	r3, [pc, #280]	; (1fff2650)
1fff2536:	2434      	movs	r4, #52	; 0x34
1fff2538:	601c      	str	r4, [r3, #0]
1fff253a:	1d1b      	adds	r3, r3, #4
1fff253c:	c307      	stmia	r3!, {r0, r1, r2}
1fff253e:	4945      	ldr	r1, [pc, #276]	; (1fff2654)
1fff2540:	4843      	ldr	r0, [pc, #268]	; (1fff2650)
1fff2542:	f7ff fd55 	bl	1fff1ff0
1fff2546:	bd10      	pop	{r4, pc}
1fff2548:	b5f8      	push	{r3, r4, r5, r6, r7, lr}
1fff254a:	4e43      	ldr	r6, [pc, #268]	; (1fff2658)
1fff254c:	4607      	mov	r7, r0
1fff254e:	6830      	ldr	r0, [r6, #0]
1fff2550:	2540      	movs	r5, #64	; 0x40
1fff2552:	4328      	orrs	r0, r5
1fff2554:	6030      	str	r0, [r6, #0]
1fff2556:	4841      	ldr	r0, [pc, #260]	; (1fff265c)
1fff2558:	6802      	ldr	r2, [r0, #0]
1fff255a:	6830      	ldr	r0, [r6, #0]
1fff255c:	43a8      	bics	r0, r5
1fff255e:	6030      	str	r0, [r6, #0]
1fff2560:	2400      	movs	r4, #0
1fff2562:	4b3f      	ldr	r3, [pc, #252]	; (1fff2660)
1fff2564:	e022      	b.n	1fff25ac
1fff2566:	6830      	ldr	r0, [r6, #0]
1fff2568:	4328      	orrs	r0, r5
1fff256a:	6030      	str	r0, [r6, #0]
1fff256c:	00a0      	lsls	r0, r4, #2
1fff256e:	5818      	ldr	r0, [r3, r0]
1fff2570:	4288      	cmp	r0, r1
1fff2572:	d91a      	bls.n	1fff25aa
1fff2574:	4a3b      	ldr	r2, [pc, #236]	; (1fff2664)
1fff2576:	00a0      	lsls	r0, r4, #2
1fff2578:	5810      	ldr	r0, [r2, r0]
1fff257a:	4288      	cmp	r0, r1
1fff257c:	d10c      	bne.n	1fff2598
1fff257e:	6830      	ldr	r0, [r6, #0]
1fff2580:	43a8      	bics	r0, r5
1fff2582:	6030      	str	r0, [r6, #0]
1fff2584:	463a      	mov	r2, r7
1fff2586:	4621      	mov	r1, r4
1fff2588:	4620      	mov	r0, r4
1fff258a:	f7ff ffc7 	bl	1fff251c
1fff258e:	463a      	mov	r2, r7
1fff2590:	4621      	mov	r1, r4
1fff2592:	4620      	mov	r0, r4
1fff2594:	f7ff ffcd 	bl	1fff2532
1fff2598:	6830      	ldr	r0, [r6, #0]
1fff259a:	43a8      	bics	r0, r5
1fff259c:	6030      	str	r0, [r6, #0]
1fff259e:	463a      	mov	r2, r7
1fff25a0:	4621      	mov	r1, r4
1fff25a2:	4620      	mov	r0, r4
1fff25a4:	f7ff ffba 	bl	1fff251c
1fff25a8:	e002      	b.n	1fff25b0
1fff25aa:	1c64      	adds	r4, r4, #1
1fff25ac:	4294      	cmp	r4, r2
1fff25ae:	d9da      	bls.n	1fff2566
1fff25b0:	6830      	ldr	r0, [r6, #0]
1fff25b2:	43a8      	bics	r0, r5
1fff25b4:	6030      	str	r0, [r6, #0]
1fff25b6:	bdf8      	pop	{r3, r4, r5, r6, r7, pc}
1fff25b8:	b5f8      	push	{r3, r4, r5, r6, r7, lr}
1fff25ba:	4c2b      	ldr	r4, [pc, #172]	; (1fff2668)
1fff25bc:	6863      	ldr	r3, [r4, #4]
1fff25be:	2b00      	cmp	r3, #0
1fff25c0:	d100      	bne.n	1fff25c4
1fff25c2:	6060      	str	r0, [r4, #4]
1fff25c4:	4b28      	ldr	r3, [pc, #160]	; (1fff2668)
1fff25c6:	2000      	movs	r0, #0
1fff25c8:	689b      	ldr	r3, [r3, #8]
1fff25ca:	4d28      	ldr	r5, [pc, #160]	; (1fff266c)
1fff25cc:	e003      	b.n	1fff25d6
1fff25ce:	5c0e      	ldrb	r6, [r1, r0]
1fff25d0:	181f      	adds	r7, r3, r0
1fff25d2:	55ee      	strb	r6, [r5, r7]
1fff25d4:	1c40      	adds	r0, r0, #1
1fff25d6:	4290      	cmp	r0, r2
1fff25d8:	d3f9      	bcc.n	1fff25ce
1fff25da:	1898      	adds	r0, r3, r2
1fff25dc:	25ff      	movs	r5, #255	; 0xff
1fff25de:	3501      	adds	r5, #1
1fff25e0:	60a0      	str	r0, [r4, #8]
1fff25e2:	42a8      	cmp	r0, r5
1fff25e4:	d115      	bne.n	1fff2612
1fff25e6:	6861      	ldr	r1, [r4, #4]
1fff25e8:	6820      	ldr	r0, [r4, #0]
1fff25ea:	f7ff ffad 	bl	1fff2548
1fff25ee:	4e19      	ldr	r6, [pc, #100]	; (1fff2654)
1fff25f0:	6830      	ldr	r0, [r6, #0]
1fff25f2:	2800      	cmp	r0, #0
1fff25f4:	d000      	beq.n	1fff25f8
1fff25f6:	e7fe      	b.n	1fff25f6
1fff25f8:	4a1c      	ldr	r2, [pc, #112]	; (1fff266c)
1fff25fa:	462b      	mov	r3, r5
1fff25fc:	6861      	ldr	r1, [r4, #4]
1fff25fe:	6820      	ldr	r0, [r4, #0]
1fff2600:	f7ff ff80 	bl	1fff2504
1fff2604:	6830      	ldr	r0, [r6, #0]
1fff2606:	2800      	cmp	r0, #0
1fff2608:	d000      	beq.n	1fff260c
1fff260a:	e7fe      	b.n	1fff260a
1fff260c:	2000      	movs	r0, #0
1fff260e:	60a0      	str	r0, [r4, #8]
1fff2610:	6060      	str	r0, [r4, #4]
1fff2612:	2000      	movs	r0, #0
1fff2614:	bdf8      	pop	{r3, r4, r5, r6, r7, pc}
1fff2616:	b570      	push	{r4, r5, r6, lr}
1fff2618:	480f      	ldr	r0, [pc, #60]	; (1fff2658)
1fff261a:	6802      	ldr	r2, [r0, #0]
1fff261c:	2140      	movs	r1, #64	; 0x40
1fff261e:	430a      	orrs	r2, r1
1fff2620:	6002      	str	r2, [r0, #0]
1fff2622:	4a0e      	ldr	r2, [pc, #56]	; (1fff265c)
1fff2624:	6814      	ldr	r4, [r2, #0]
1fff2626:	6802      	ldr	r2, [r0, #0]
1fff2628:	438a      	bics	r2, r1
1fff262a:	6002      	str	r2, [r0, #0]
1fff262c:	4d0e      	ldr	r5, [pc, #56]	; (1fff2668)
1fff262e:	4621      	mov	r1, r4
1fff2630:	2000      	movs	r0, #0
1fff2632:	682a      	ldr	r2, [r5, #0]
1fff2634:	f7ff ff72 	bl	1fff251c
1fff2638:	4621      	mov	r1, r4
1fff263a:	2000      	movs	r0, #0
1fff263c:	682a      	ldr	r2, [r5, #0]
1fff263e:	f7ff ff78 	bl	1fff2532
1fff2642:	4804      	ldr	r0, [pc, #16]	; (1fff2654)
1fff2644:	6800      	ldr	r0, [r0, #0]
1fff2646:	2800      	cmp	r0, #0
1fff2648:	d000      	beq.n	1fff264c
1fff264a:	e7fe      	b.n	1fff264a
1fff264c:	bd70      	pop	{r4, r5, r6, pc}
1fff264e:	0000      	movs	r0, r0
1fff2650:	018c      	lsls	r4, r1, #6
1fff2652:	1000      	asrs	r0, r0, #32
1fff2654:	01a0      	lsls	r0, r4, #6
1fff2656:	1000      	asrs	r0, r0, #32
1fff2658:	c000      	stmia	r0!, {}
1fff265a:	4003      	ands	r3, r0
1fff265c:	0440      	lsls	r0, r0, #17
1fff265e:	0000      	movs	r0, r0
1fff2660:	0520      	lsls	r0, r4, #20
1fff2662:	0000      	movs	r0, r0
1fff2664:	0490      	lsls	r0, r2, #18
1fff2666:	0000      	movs	r0, r0
1fff2668:	0264      	lsls	r4, r4, #9
1fff266a:	1000      	asrs	r0, r0, #32
1fff266c:	0894      	lsrs	r4, r2, #2
1fff266e:	1000      	asrs	r0, r0, #32
1fff2670:	4892      	ldr	r0, [pc, #584]	; (1fff28bc)
1fff2672:	2100      	movs	r1, #0
1fff2674:	8081      	strh	r1, [r0, #4]
1fff2676:	7001      	strb	r1, [r0, #0]
1fff2678:	7041      	strb	r1, [r0, #1]
1fff267a:	4a91      	ldr	r2, [pc, #580]	; (1fff28c0)
1fff267c:	6082      	str	r2, [r0, #8]
1fff267e:	60c1      	str	r1, [r0, #12]
1fff2680:	4770      	bx	lr
1fff2682:	498e      	ldr	r1, [pc, #568]	; (1fff28bc)
1fff2684:	b510      	push	{r4, lr}
1fff2686:	3120      	adds	r1, #32
1fff2688:	2000      	movs	r0, #0
1fff268a:	f000 f9c8 	bl	1fff2a1e
1fff268e:	bd10      	pop	{r4, pc}
1fff2690:	b510      	push	{r4, lr}
1fff2692:	4c8a      	ldr	r4, [pc, #552]	; (1fff28bc)
1fff2694:	3418      	adds	r4, #24
1fff2696:	88a2      	ldrh	r2, [r4, #4]
1fff2698:	2a40      	cmp	r2, #64	; 0x40
1fff269a:	d900      	bls.n	1fff269e
1fff269c:	2240      	movs	r2, #64	; 0x40
1fff269e:	2080      	movs	r0, #128	; 0x80
1fff26a0:	6821      	ldr	r1, [r4, #0]
1fff26a2:	f000 f9ea 	bl	1fff2a7a
1fff26a6:	6821      	ldr	r1, [r4, #0]
1fff26a8:	1809      	adds	r1, r1, r0
1fff26aa:	6021      	str	r1, [r4, #0]
1fff26ac:	88a1      	ldrh	r1, [r4, #4]
1fff26ae:	1a08      	subs	r0, r1, r0
1fff26b0:	80a0      	strh	r0, [r4, #4]
1fff26b2:	bd10      	pop	{r4, pc}
1fff26b4:	b510      	push	{r4, lr}
1fff26b6:	4c81      	ldr	r4, [pc, #516]	; (1fff28bc)
1fff26b8:	2000      	movs	r0, #0
1fff26ba:	3418      	adds	r4, #24
1fff26bc:	6821      	ldr	r1, [r4, #0]
1fff26be:	f000 f9ae 	bl	1fff2a1e
1fff26c2:	6821      	ldr	r1, [r4, #0]
1fff26c4:	1809      	adds	r1, r1, r0
1fff26c6:	6021      	str	r1, [r4, #0]
1fff26c8:	88a1      	ldrh	r1, [r4, #4]
1fff26ca:	1a08      	subs	r0, r1, r0
1fff26cc:	80a0      	strh	r0, [r4, #4]
1fff26ce:	bd10      	pop	{r4, pc}
1fff26d0:	b510      	push	{r4, lr}
1fff26d2:	2200      	movs	r2, #0
1fff26d4:	4611      	mov	r1, r2
1fff26d6:	2080      	movs	r0, #128	; 0x80
1fff26d8:	f000 f9cf 	bl	1fff2a7a
1fff26dc:	bd10      	pop	{r4, pc}
1fff26de:	b510      	push	{r4, lr}
1fff26e0:	4978      	ldr	r1, [pc, #480]	; (1fff28c4)
1fff26e2:	2000      	movs	r0, #0
1fff26e4:	f000 f99b 	bl	1fff2a1e
1fff26e8:	bd10      	pop	{r4, pc}

1fff26ea:	b5f8      	push	{r3, r4, r5, r6, r7, lr}
1fff26ec:	4c73      	ldr	r4, [pc, #460]	; (1fff28bc)
1fff26ee:	4f73      	ldr	r7, [pc, #460]	; (1fff28bc)
1fff26f0:	3418      	adds	r4, #24
1fff26f2:	4626      	mov	r6, r4
1fff26f4:	3608      	adds	r6, #8
1fff26f6:	7831      	ldrb	r1, [r6, #0]
1fff26f8:	4603      	mov	r3, r0
1fff26fa:	f000 fb07 	bl	1fff2d0c  # cmd_jmp_table()
1fff26fc: 5c08fb07
1fff26fc: 5c08fb07
1fff2700: 5ccdaa05
1fff2704: 5cd8da5c
1fff2708: ffbbf7ff
1fff270c: 09c07830
1fff2710: f952f000
1fff26fe:	5c08      	ldrb	r0, [r1, r0]
1fff2700:	aa05      	add	r2, sp, #20
1fff2702:	5ccd      	ldrb	r5, [r1, r3]
1fff2704:	da5c      	bge.n	1fff27c0
1fff2706:	5cd8      	ldrb	r0, [r3, r3]
1fff2708:	f7ff ffbb 	bl	1fff2682
1fff270c:	7830      	ldrb	r0, [r6, #0]
1fff270e:	09c0      	lsrs	r0, r0, #7
1fff2710:	f000 f952 	bl	1fff29b8
1fff2714:	88f0      	ldrh	r0, [r6, #6]
1fff2716:	80a0      	strh	r0, [r4, #4]
1fff2718:	7830      	ldrb	r0, [r6, #0]
1fff271a:	0641      	lsls	r1, r0, #25
1fff271c:	0f89      	lsrs	r1, r1, #30
1fff271e:	d017      	beq.n	1fff2750
1fff2720:	2901      	cmp	r1, #1
1fff2722:	d134      	bne.n	1fff278e
1fff2724:	06c0      	lsls	r0, r0, #27
1fff2726:	0ec0      	lsrs	r0, r0, #27
1fff2728:	2801      	cmp	r0, #1
1fff272a:	d130      	bne.n	1fff278e
1fff272c:	6978      	ldr	r0, [r7, #20]
1fff272e:	4d65      	ldr	r5, [pc, #404]	; (1fff28c4)
1fff2730:	8800      	ldrh	r0, [r0, #0]
1fff2732:	2803      	cmp	r0, #3
1fff2734:	d172      	bne.n	1fff281c
1fff2736:	7930      	ldrb	r0, [r6, #4]
1fff2738:	2800      	cmp	r0, #0
1fff273a:	d128      	bne.n	1fff278e
1fff273c:	7873      	ldrb	r3, [r6, #1]
1fff273e:	f000 fae5 	bl	1fff2d0c  # cmd_jmp_table()
1fff2742:	6d0c      	ldr	r4, [r1, #80]	; 0x50
1fff2744:	5b52      	ldrh	r2, [r2, r5]
1fff2746:	6d64      	ldr	r4, [r4, #84]	; 0x54
1fff2748:	6d6d      	ldr	r5, [r5, #84]	; 0x54
1fff274a:	6d6d      	ldr	r5, [r5, #84]	; 0x54
1fff274c:	5e59      	ldrsh	r1, [r3, r1]
1fff274e:	6d69      	ldr	r1, [r5, #84]	; 0x54
1fff2750:	7873      	ldrb	r3, [r6, #1]
1fff2752:	f000 fadb 	bl	1fff2d0c  # cmd_jmp_table()
1fff2756:	070c      	lsls	r4, r1, #28
1fff2758:	780a      	ldrb	r2, [r1, #0]
1fff275a:	780c      	ldrb	r4, [r1, #0]
1fff275c:	1810      	adds	r0, r2, r0
1fff275e:	1f1d      	subs	r5, r3, #4
1fff2760:	3125      	adds	r1, #37	; 0x25
1fff2762:	7841      	ldrb	r1, [r0, #1]
1fff2764:	f000 fb9c 	bl	1fff2ea0
1fff2768:	e00f      	b.n	1fff278a
1fff276a:	2000      	movs	r0, #0
1fff276c:	e000      	b.n	1fff2770
1fff276e:	2001      	movs	r0, #1
1fff2770:	f000 fbd8 	bl	1fff2f24
1fff2774:	e08a      	b.n	1fff288c
1fff2776:	06c0      	lsls	r0, r0, #27
1fff2778:	0ec0      	lsrs	r0, r0, #27
1fff277a:	d164      	bne.n	1fff2846
1fff277c:	78b0      	ldrb	r0, [r6, #2]
1fff277e:	2180      	movs	r1, #128	; 0x80
1fff2780:	4308      	orrs	r0, r1
1fff2782:	7038      	strb	r0, [r7, #0]
1fff2784:	e03e      	b.n	1fff2804
1fff2786:	f000 facf 	bl	1fff2d28
1fff278a:	2800      	cmp	r0, #0
1fff278c:	d113      	bne.n	1fff27b6
1fff278e:	e05a      	b.n	1fff2846
1fff2790:	2000      	movs	r0, #0
1fff2792:	e059      	b.n	1fff2848
1fff2794:	06c0      	lsls	r0, r0, #27
1fff2796:	0ec0      	lsrs	r0, r0, #27
1fff2798:	d155      	bne.n	1fff2846
1fff279a:	4848      	ldr	r0, [pc, #288]	; (1fff28bc)
1fff279c:	1c40      	adds	r0, r0, #1
1fff279e:	e019      	b.n	1fff27d4
1fff27a0:	06c0      	lsls	r0, r0, #27
1fff27a2:	0ec0      	lsrs	r0, r0, #27
1fff27a4:	d14f      	bne.n	1fff2846
1fff27a6:	f000 fc07 	bl	1fff2fb8
1fff27aa:	2800      	cmp	r0, #0
1fff27ac:	d04b      	beq.n	1fff2846
1fff27ae:	f7ff ff8f 	bl	1fff26d0
1fff27b2:	f000 fa36 	bl	1fff2c22
1fff27b6:	bdf8      	pop	{r3, r4, r5, r6, r7, pc}
1fff27b8:	06c0      	lsls	r0, r0, #27
1fff27ba:	0ec0      	lsrs	r0, r0, #27
1fff27bc:	2801      	cmp	r0, #1
1fff27be:	d142      	bne.n	1fff2846
1fff27c0:	7878      	ldrb	r0, [r7, #1]
1fff27c2:	2800      	cmp	r0, #0
1fff27c4:	d03f      	beq.n	1fff2846
1fff27c6:	7930      	ldrb	r0, [r6, #4]
1fff27c8:	78b9      	ldrb	r1, [r7, #2]
1fff27ca:	4288      	cmp	r0, r1
1fff27cc:	d23b      	bcs.n	1fff2846
1fff27ce:	493b      	ldr	r1, [pc, #236]	; (1fff28bc)
1fff27d0:	3110      	adds	r1, #16
1fff27d2:	1840      	adds	r0, r0, r1
1fff27d4:	6020      	str	r0, [r4, #0]
1fff27d6:	e00a      	b.n	1fff27ee
1fff27d8:	06c0      	lsls	r0, r0, #27
1fff27da:	0ec0      	lsrs	r0, r0, #27
1fff27dc:	2801      	cmp	r0, #1
1fff27de:	d132      	bne.n	1fff2846
1fff27e0:	f000 fc96 	bl	1fff3110
1fff27e4:	e052      	b.n	1fff288c
1fff27e6:	f7fd ff85 	bl	1fff06f4
1fff27ea:	e010      	b.n	1fff280e
1fff27ec:	6025      	str	r5, [r4, #0]
1fff27ee:	f7ff ff4f 	bl	1fff2690
1fff27f2:	bdf8      	pop	{r3, r4, r5, r6, r7, pc}
1fff27f4:	6025      	str	r5, [r4, #0]
1fff27f6:	bdf8      	pop	{r3, r4, r5, r6, r7, pc}
1fff27f8:	f7fd ffa4 	bl	1fff0744
1fff27fc:	e007      	b.n	1fff280e
1fff27fe:	f7fd ffa9 	bl	1fff0754
1fff2802:	e009      	b.n	1fff2818
1fff2804:	f7ff ff64 	bl	1fff26d0
1fff2808:	bdf8      	pop	{r3, r4, r5, r6, r7, pc}
1fff280a:	f7fd ffaa 	bl	1fff0762
1fff280e:	2800      	cmp	r0, #0
1fff2810:	d1ec      	bne.n	1fff27ec
1fff2812:	e003      	b.n	1fff281c
1fff2814:	f7fd ffac 	bl	1fff0770
1fff2818:	2800      	cmp	r0, #0
1fff281a:	d1f3      	bne.n	1fff2804
1fff281c:	6978      	ldr	r0, [r7, #20]
1fff281e:	8800      	ldrh	r0, [r0, #0]
1fff2820:	2808      	cmp	r0, #8
1fff2822:	d110      	bne.n	1fff2846
1fff2824:	7930      	ldrb	r0, [r6, #4]
1fff2826:	2800      	cmp	r0, #0
1fff2828:	d10d      	bne.n	1fff2846
1fff282a:	7870      	ldrb	r0, [r6, #1]
1fff282c:	28fe      	cmp	r0, #254	; 0xfe
1fff282e:	d006      	beq.n	1fff283e
1fff2830:	28ff      	cmp	r0, #255	; 0xff
1fff2832:	d108      	bne.n	1fff2846
1fff2834:	f7fe fe04 	bl	1fff1440
1fff2838:	2800      	cmp	r0, #0
1fff283a:	d1e3      	bne.n	1fff2804
1fff283c:	e003      	b.n	1fff2846
1fff283e:	f7fe fe04 	bl	1fff144a
1fff2842:	2800      	cmp	r0, #0
1fff2844:	d1d2      	bne.n	1fff27ec
1fff2846:	2080      	movs	r0, #128	; 0x80
1fff2848:	f000 f8d5 	bl	1fff29f6
1fff284c:	2000      	movs	r0, #0
1fff284e:	80a0      	strh	r0, [r4, #4]
1fff2850:	bdf8      	pop	{r3, r4, r5, r6, r7, pc}
1fff2852:	09c8      	lsrs	r0, r1, #7
1fff2854:	d11d      	bne.n	1fff2892
1fff2856:	88a0      	ldrh	r0, [r4, #4]
1fff2858:	2800      	cmp	r0, #0
1fff285a:	d0f9      	beq.n	1fff2850
1fff285c:	f7ff ff2a 	bl	1fff26b4
1fff2860:	88a0      	ldrh	r0, [r4, #4]
1fff2862:	2800      	cmp	r0, #0
1fff2864:	d1f4      	bne.n	1fff2850
1fff2866:	7830      	ldrb	r0, [r6, #0]
1fff2868:	0641      	lsls	r1, r0, #25
1fff286a:	0f89      	lsrs	r1, r1, #30
1fff286c:	d0eb      	beq.n	1fff2846
1fff286e:	2901      	cmp	r1, #1
1fff2870:	d1e9      	bne.n	1fff2846
1fff2872:	06c0      	lsls	r0, r0, #27
1fff2874:	0ec0      	lsrs	r0, r0, #27
1fff2876:	2801      	cmp	r0, #1
1fff2878:	d1e5      	bne.n	1fff2846
1fff287a:	6978      	ldr	r0, [r7, #20]
1fff287c:	8800      	ldrh	r0, [r0, #0]
1fff287e:	2803      	cmp	r0, #3
1fff2880:	d1e1      	bne.n	1fff2846
1fff2882:	7930      	ldrb	r0, [r6, #4]
1fff2884:	2800      	cmp	r0, #0
1fff2886:	d1de      	bne.n	1fff2846
1fff2888:	f7fd ff48 	bl	1fff071c
1fff288c:	2800      	cmp	r0, #0
1fff288e:	d0da      	beq.n	1fff2846
1fff2890:	e7b8      	b.n	1fff2804
1fff2892:	f7ff ff24 	bl	1fff26de
1fff2896:	bdf8      	pop	{r3, r4, r5, r6, r7, pc}
1fff2898:	09c8      	lsrs	r0, r1, #7
1fff289a:	d1a8      	bne.n	1fff27ee
1fff289c:	7838      	ldrb	r0, [r7, #0]
1fff289e:	0601      	lsls	r1, r0, #24
1fff28a0:	d5f9      	bpl.n	1fff2896
1fff28a2:	0640      	lsls	r0, r0, #25
1fff28a4:	0e40      	lsrs	r0, r0, #25
1fff28a6:	7038      	strb	r0, [r7, #0]
1fff28a8:	f000 f83c 	bl	1fff2924
1fff28ac:	bdf8      	pop	{r3, r4, r5, r6, r7, pc}
1fff28ae:	2080      	movs	r0, #128	; 0x80
1fff28b0:	e000      	b.n	1fff28b4
1fff28b2:	2000      	movs	r0, #0
1fff28b4:	f000 f8a9 	bl	1fff2a0a
1fff28b8:	bdf8      	pop	{r3, r4, r5, r6, r7, pc}
1fff28ba:	0000      	movs	r0, r0
1fff28bc:	0068      	lsls	r0, r5, #1
1fff28be:	1000      	asrs	r0, r0, #32
1fff28c0:	0001      	movs	r1, r0
1fff28c2:	0001      	movs	r1, r0
1fff28c4:	013c      	lsls	r4, r7, #4
1fff28c6:	1000      	asrs	r0, r0, #32
1fff28c8:	2100      	movs	r1, #0
1fff28ca:	e000      	b.n	1fff28ce
1fff28cc:	1c49      	adds	r1, r1, #1
1fff28ce:	4281      	cmp	r1, r0
1fff28d0:	d3fc      	bcc.n	1fff28cc
1fff28d2:	4770      	bx	lr
1fff28d4:	4601      	mov	r1, r0
1fff28d6:	0700      	lsls	r0, r0, #28
1fff28d8:	0ec0      	lsrs	r0, r0, #27
1fff28da:	0609      	lsls	r1, r1, #24
1fff28dc:	d500      	bpl.n	1fff28e0
1fff28de:	1c40      	adds	r0, r0, #1
1fff28e0:	4770      	bx	lr
1fff28e2:	2201      	movs	r2, #1
1fff28e4:	49a9      	ldr	r1, [pc, #676]	; (1fff2b8c)
1fff28e6:	0292      	lsls	r2, r2, #10
1fff28e8:	608a      	str	r2, [r1, #8]
1fff28ea:	6108      	str	r0, [r1, #16]
1fff28ec:	6808      	ldr	r0, [r1, #0]
1fff28ee:	0540      	lsls	r0, r0, #21
1fff28f0:	d5fc      	bpl.n	1fff28ec
1fff28f2:	4770      	bx	lr
1fff28f4:	2301      	movs	r3, #1
1fff28f6:	4aa5      	ldr	r2, [pc, #660]	; (1fff2b8c)
1fff28f8:	029b      	lsls	r3, r3, #10
1fff28fa:	6093      	str	r3, [r2, #8]
1fff28fc:	6110      	str	r0, [r2, #16]
1fff28fe:	6810      	ldr	r0, [r2, #0]
1fff2900:	0540      	lsls	r0, r0, #21
1fff2902:	d5fc      	bpl.n	1fff28fe
1fff2904:	6093      	str	r3, [r2, #8]
1fff2906:	6111      	str	r1, [r2, #16]
1fff2908:	6810      	ldr	r0, [r2, #0]
1fff290a:	0540      	lsls	r0, r0, #21
1fff290c:	d5fc      	bpl.n	1fff2908
1fff290e:	4770      	bx	lr
1fff2910:	2203      	movs	r2, #3
1fff2912:	499e      	ldr	r1, [pc, #632]	; (1fff2b8c)
1fff2914:	0292      	lsls	r2, r2, #10
1fff2916:	608a      	str	r2, [r1, #8]
1fff2918:	6108      	str	r0, [r1, #16]
1fff291a:	6808      	ldr	r0, [r1, #0]
1fff291c:	0500      	lsls	r0, r0, #20
1fff291e:	d5fc      	bpl.n	1fff291a
1fff2920:	6948      	ldr	r0, [r1, #20]
1fff2922:	4770      	bx	lr
1fff2924:	b530      	push	{r4, r5, lr}
1fff2926:	0404      	lsls	r4, r0, #16
1fff2928:	4899      	ldr	r0, [pc, #612]	; (1fff2b90)
1fff292a:	4d9a      	ldr	r5, [pc, #616]	; (1fff2b94)
1fff292c:	4304      	orrs	r4, r0
1fff292e:	4621      	mov	r1, r4
1fff2930:	4628      	mov	r0, r5
1fff2932:	f7ff ffdf 	bl	1fff28f4
1fff2936:	4621      	mov	r1, r4
1fff2938:	4628      	mov	r0, r5
1fff293a:	f7ff ffdb 	bl	1fff28f4
1fff293e:	bd30      	pop	{r4, r5, pc}
1fff2940:	4892      	ldr	r0, [pc, #584]	; (1fff2b8c)
1fff2942:	4995      	ldr	r1, [pc, #596]	; (1fff2b98)
1fff2944:	6081      	str	r1, [r0, #8]
1fff2946:	4995      	ldr	r1, [pc, #596]	; (1fff2b9c)
1fff2948:	6041      	str	r1, [r0, #4]
1fff294a:	4770      	bx	lr
1fff294c:	b500      	push	{lr}
1fff294e:	4994      	ldr	r1, [pc, #592]	; (1fff2ba0)
1fff2950:	6008      	str	r0, [r1, #0]
1fff2952:	4894      	ldr	r0, [pc, #592]	; (1fff2ba4)
1fff2954:	6800      	ldr	r0, [r0, #0]
1fff2956:	0300      	lsls	r0, r0, #12
1fff2958:	0f01      	lsrs	r1, r0, #28
1fff295a:	4893      	ldr	r0, [pc, #588]	; (1fff2ba8)
1fff295c:	290f      	cmp	r1, #15
1fff295e:	d103      	bne.n	1fff2968
1fff2960:	2101      	movs	r1, #1
1fff2962:	03c9      	lsls	r1, r1, #15
1fff2964:	6041      	str	r1, [r0, #4]
1fff2966:	e002      	b.n	1fff296e
1fff2968:	2101      	movs	r1, #1
1fff296a:	0589      	lsls	r1, r1, #22
1fff296c:	6001      	str	r1, [r0, #0]
1fff296e:	4987      	ldr	r1, [pc, #540]	; (1fff2b8c)
1fff2970:	2000      	movs	r0, #0
1fff2972:	62c8      	str	r0, [r1, #44]	; 0x2c
1fff2974:	f7ff ffe4 	bl	1fff2940
1fff2978:	2000      	movs	r0, #0
1fff297a:	f7ff ffd3 	bl	1fff2924
1fff297e:	bd00      	pop	{pc}
1fff2980:	2800      	cmp	r0, #0
1fff2982:	d000      	beq.n	1fff2986
1fff2984:	2001      	movs	r0, #1
1fff2986:	0401      	lsls	r1, r0, #16
1fff2988:	31ff      	adds	r1, #255	; 0xff
1fff298a:	3101      	adds	r1, #1
1fff298c:	4887      	ldr	r0, [pc, #540]	; (1fff2bac)
1fff298e:	e7b1      	b.n	1fff28f4
1fff2990:	4770      	bx	lr
1fff2992:	4770      	bx	lr
1fff2994:	4886      	ldr	r0, [pc, #536]	; (1fff2bb0)
1fff2996:	8800      	ldrh	r0, [r0, #0]
1fff2998:	0780      	lsls	r0, r0, #30
1fff299a:	d502      	bpl.n	1fff29a2
1fff299c:	4985      	ldr	r1, [pc, #532]	; (1fff2bb4)
1fff299e:	4883      	ldr	r0, [pc, #524]	; (1fff2bac)
1fff29a0:	e7a8      	b.n	1fff28f4
1fff29a2:	4770      	bx	lr
1fff29a4:	4770      	bx	lr
1fff29a6:	2800      	cmp	r0, #0
1fff29a8:	d000      	beq.n	1fff29ac
1fff29aa:	2001      	movs	r0, #1
1fff29ac:	0401      	lsls	r1, r0, #16
1fff29ae:	31ff      	adds	r1, #255	; 0xff
1fff29b0:	3101      	adds	r1, #1
1fff29b2:	4881      	ldr	r0, [pc, #516]	; (1fff2bb8)
1fff29b4:	e79e      	b.n	1fff28f4
1fff29b6:	4770      	bx	lr
1fff29b8:	4770      	bx	lr
1fff29ba:	b500      	push	{lr}
1fff29bc:	f7ff ff8a 	bl	1fff28d4
1fff29c0:	497e      	ldr	r1, [pc, #504]	; (1fff2bbc)
1fff29c2:	0400      	lsls	r0, r0, #16
1fff29c4:	4308      	orrs	r0, r1
1fff29c6:	1389      	asrs	r1, r1, #14
1fff29c8:	f7ff ff94 	bl	1fff28f4
1fff29cc:	bd00      	pop	{pc}
1fff29ce:	b500      	push	{lr}
1fff29d0:	f7ff ff80 	bl	1fff28d4
1fff29d4:	4979      	ldr	r1, [pc, #484]	; (1fff2bbc)
1fff29d6:	0400      	lsls	r0, r0, #16
1fff29d8:	4308      	orrs	r0, r1
1fff29da:	4979      	ldr	r1, [pc, #484]	; (1fff2bc0)
1fff29dc:	f7ff ff8a 	bl	1fff28f4
1fff29e0:	bd00      	pop	{pc}
1fff29e2:	b500      	push	{lr}
1fff29e4:	f7ff ff76 	bl	1fff28d4
1fff29e8:	4974      	ldr	r1, [pc, #464]	; (1fff2bbc)
1fff29ea:	0400      	lsls	r0, r0, #16
1fff29ec:	4308      	orrs	r0, r1
1fff29ee:	1389      	asrs	r1, r1, #14
1fff29f0:	f7ff ff80 	bl	1fff28f4
1fff29f4:	bd00      	pop	{pc}
1fff29f6:	b500      	push	{lr}
1fff29f8:	f7ff ff6c 	bl	1fff28d4
1fff29fc:	496f      	ldr	r1, [pc, #444]	; (1fff2bbc)
1fff29fe:	0400      	lsls	r0, r0, #16
1fff2a00:	4308      	orrs	r0, r1
1fff2a02:	496c      	ldr	r1, [pc, #432]	; (1fff2bb4)
1fff2a04:	f7ff ff76 	bl	1fff28f4
1fff2a08:	bd00      	pop	{pc}
1fff2a0a:	b500      	push	{lr}
1fff2a0c:	f7ff ff62 	bl	1fff28d4
1fff2a10:	496a      	ldr	r1, [pc, #424]	; (1fff2bbc)
1fff2a12:	0400      	lsls	r0, r0, #16
1fff2a14:	4308      	orrs	r0, r1
1fff2a16:	1389      	asrs	r1, r1, #14
1fff2a18:	f7ff ff6c 	bl	1fff28f4
1fff2a1c:	bd00      	pop	{pc}
1fff2a1e:	b5f3      	push	{r0, r1, r4, r5, r6, r7, lr}
1fff2a20:	b081      	sub	sp, #4
1fff2a22:	9801      	ldr	r0, [sp, #4]
1fff2a24:	4e59      	ldr	r6, [pc, #356]	; (1fff2b8c)
1fff2a26:	0700      	lsls	r0, r0, #28
1fff2a28:	0e80      	lsrs	r0, r0, #26
1fff2a2a:	1c40      	adds	r0, r0, #1
1fff2a2c:	460d      	mov	r5, r1
1fff2a2e:	62b0      	str	r0, [r6, #40]	; 0x28
1fff2a30:	2005      	movs	r0, #5
1fff2a32:	f7ff ff49 	bl	1fff28c8
1fff2a36:	6a30      	ldr	r0, [r6, #32]
1fff2a38:	0541      	lsls	r1, r0, #21
1fff2a3a:	d5fc      	bpl.n	1fff2a36
1fff2a3c:	0580      	lsls	r0, r0, #22
1fff2a3e:	0d80      	lsrs	r0, r0, #22
1fff2a40:	9000      	str	r0, [sp, #0]
1fff2a42:	2400      	movs	r4, #0
1fff2a44:	1cc0      	adds	r0, r0, #3
1fff2a46:	0887      	lsrs	r7, r0, #2
1fff2a48:	e005      	b.n	1fff2a56
1fff2a4a:	69b0      	ldr	r0, [r6, #24]
1fff2a4c:	4629      	mov	r1, r5
1fff2a4e:	f000 f924 	bl	1fff2c9a
1fff2a52:	1d2d      	adds	r5, r5, #4
1fff2a54:	1c64      	adds	r4, r4, #1
1fff2a56:	42a7      	cmp	r7, r4
1fff2a58:	d8f7      	bhi.n	1fff2a4a
1fff2a5a:	2000      	movs	r0, #0
1fff2a5c:	62b0      	str	r0, [r6, #40]	; 0x28
1fff2a5e:	9801      	ldr	r0, [sp, #4]
1fff2a60:	f7ff ff38 	bl	1fff28d4
1fff2a64:	2105      	movs	r1, #5
1fff2a66:	0400      	lsls	r0, r0, #16
1fff2a68:	0209      	lsls	r1, r1, #8
1fff2a6a:	1840      	adds	r0, r0, r1
1fff2a6c:	f7ff ff39 	bl	1fff28e2
1fff2a70:	4854      	ldr	r0, [pc, #336]	; (1fff2bc4)
1fff2a72:	f7ff ff36 	bl	1fff28e2
1fff2a76:	9800      	ldr	r0, [sp, #0]
1fff2a78:	bdfe      	pop	{r1, r2, r3, r4, r5, r6, r7, pc}
1fff2a7a:	b5f7      	push	{r0, r1, r2, r4, r5, r6, r7, lr}
1fff2a7c:	9800      	ldr	r0, [sp, #0]
1fff2a7e:	4f43      	ldr	r7, [pc, #268]	; (1fff2b8c)
1fff2a80:	0700      	lsls	r0, r0, #28
1fff2a82:	0e80      	lsrs	r0, r0, #26
1fff2a84:	1c80      	adds	r0, r0, #2
1fff2a86:	460d      	mov	r5, r1
1fff2a88:	62b8      	str	r0, [r7, #40]	; 0x28
1fff2a8a:	2005      	movs	r0, #5
1fff2a8c:	f7ff ff1c 	bl	1fff28c8
1fff2a90:	9802      	ldr	r0, [sp, #8]
1fff2a92:	6278      	str	r0, [r7, #36]	; 0x24
1fff2a94:	9802      	ldr	r0, [sp, #8]
1fff2a96:	2400      	movs	r4, #0
1fff2a98:	1cc0      	adds	r0, r0, #3
1fff2a9a:	0886      	lsrs	r6, r0, #2
1fff2a9c:	e005      	b.n	1fff2aaa
1fff2a9e:	4628      	mov	r0, r5
1fff2aa0:	f000 f8ea 	bl	1fff2c78
1fff2aa4:	61f8      	str	r0, [r7, #28]
1fff2aa6:	1d2d      	adds	r5, r5, #4
1fff2aa8:	1c64      	adds	r4, r4, #1
1fff2aaa:	42a6      	cmp	r6, r4
1fff2aac:	d8f7      	bhi.n	1fff2a9e
1fff2aae:	2000      	movs	r0, #0
1fff2ab0:	62b8      	str	r0, [r7, #40]	; 0x28
1fff2ab2:	9800      	ldr	r0, [sp, #0]
1fff2ab4:	f7ff ff0e 	bl	1fff28d4
1fff2ab8:	2105      	movs	r1, #5
1fff2aba:	0400      	lsls	r0, r0, #16
1fff2abc:	0209      	lsls	r1, r1, #8
1fff2abe:	1840      	adds	r0, r0, r1
1fff2ac0:	f7ff ff0f 	bl	1fff28e2
1fff2ac4:	4840      	ldr	r0, [pc, #256]	; (1fff2bc8)
1fff2ac6:	f7ff ff0c 	bl	1fff28e2
1fff2aca:	9802      	ldr	r0, [sp, #8]
1fff2acc:	bdfe      	pop	{r1, r2, r3, r4, r5, r6, r7, pc}
1fff2ace:	b510      	push	{r4, lr}
1fff2ad0:	483e      	ldr	r0, [pc, #248]	; (1fff2bcc)
1fff2ad2:	f7ff ff06 	bl	1fff28e2
1fff2ad6:	4c3e      	ldr	r4, [pc, #248]	; (1fff2bd0)
1fff2ad8:	4620      	mov	r0, r4
1fff2ada:	f7ff ff19 	bl	1fff2910
1fff2ade:	4603      	mov	r3, r0
1fff2ae0:	4620      	mov	r0, r4
1fff2ae2:	f7ff ff15 	bl	1fff2910
1fff2ae6:	0200      	lsls	r0, r0, #8
1fff2ae8:	4318      	orrs	r0, r3
1fff2aea:	bd10      	pop	{r4, pc}

1fff2aed <usb_irqhandler>
1fff2aec:	b5f8      	push	{r3, r4, r5, r6, r7, lr}
1fff2aee:	4827      	ldr	r0, [pc, #156]	; (1fff2b8c)
1fff2af0:	6803      	ldr	r3, [r0, #0]
1fff2af2:	6083      	str	r3, [r0, #8]
1fff2af4:	0598      	lsls	r0, r3, #22
1fff2af6:	d518      	bpl.n	1fff2b2a
1fff2af8:	482c      	ldr	r0, [pc, #176]	; (1fff2bac)
1fff2afa:	f7ff fef2 	bl	1fff28e2
1fff2afe:	4835      	ldr	r0, [pc, #212]	; (1fff2bd4)
1fff2b00:	f7ff ff06 	bl	1fff2910
1fff2b04:	06c1      	lsls	r1, r0, #27
1fff2b06:	d504      	bpl.n	1fff2b12
1fff2b08:	f7ff ff1a 	bl	1fff2940
1fff2b0c:	f000 f868 	bl	1fff2be0
1fff2b10:	bdf8      	pop	{r3, r4, r5, r6, r7, pc}
1fff2b12:	0781      	lsls	r1, r0, #30
1fff2b14:	d4fc      	bmi.n	1fff2b10
1fff2b16:	0701      	lsls	r1, r0, #28
1fff2b18:	d507      	bpl.n	1fff2b2a
1fff2b1a:	0740      	lsls	r0, r0, #29
1fff2b1c:	d502      	bpl.n	1fff2b24
1fff2b1e:	f000 f863 	bl	1fff2be8
1fff2b22:	bdf8      	pop	{r3, r4, r5, r6, r7, pc}
1fff2b24:	f000 f861 	bl	1fff2bea
1fff2b28:	bdf8      	pop	{r3, r4, r5, r6, r7, pc}
1fff2b2a:	05d8      	lsls	r0, r3, #23
1fff2b2c:	0e00      	lsrs	r0, r0, #24
1fff2b2e:	d0fb      	beq.n	1fff2b28
1fff2b30:	2400      	movs	r4, #0
1fff2b32:	4d29      	ldr	r5, [pc, #164]	; (1fff2bd8)
1fff2b34:	085e      	lsrs	r6, r3, #1
1fff2b36:	2001      	movs	r0, #1
1fff2b38:	40a0      	lsls	r0, r4
1fff2b3a:	4206      	tst	r6, r0
1fff2b3c:	d021      	beq.n	1fff2b82
1fff2b3e:	481f      	ldr	r0, [pc, #124]	; (1fff2bbc)
1fff2b40:	0427      	lsls	r7, r4, #16
1fff2b42:	0863      	lsrs	r3, r4, #1
1fff2b44:	4338      	orrs	r0, r7
1fff2b46:	f7ff fecc 	bl	1fff28e2
1fff2b4a:	4824      	ldr	r0, [pc, #144]	; (1fff2bdc)
1fff2b4c:	4338      	orrs	r0, r7
1fff2b4e:	f7ff fedf 	bl	1fff2910
1fff2b52:	07e1      	lsls	r1, r4, #31
1fff2b54:	d10f      	bne.n	1fff2b76
1fff2b56:	2c00      	cmp	r4, #0
1fff2b58:	d107      	bne.n	1fff2b6a
1fff2b5a:	0740      	lsls	r0, r0, #29
1fff2b5c:	d505      	bpl.n	1fff2b6a
1fff2b5e:	6828      	ldr	r0, [r5, #0]
1fff2b60:	2800      	cmp	r0, #0
1fff2b62:	d002      	beq.n	1fff2b6a
1fff2b64:	4601      	mov	r1, r0
1fff2b66:	2001      	movs	r0, #1
1fff2b68:	e00a      	b.n	1fff2b80
1fff2b6a:	0098      	lsls	r0, r3, #2
1fff2b6c:	5829      	ldr	r1, [r5, r0]
1fff2b6e:	2900      	cmp	r1, #0
1fff2b70:	d007      	beq.n	1fff2b82
1fff2b72:	2002      	movs	r0, #2
1fff2b74:	e004      	b.n	1fff2b80
1fff2b76:	0098      	lsls	r0, r3, #2
1fff2b78:	5829      	ldr	r1, [r5, r0]
1fff2b7a:	2900      	cmp	r1, #0
1fff2b7c:	d001      	beq.n	1fff2b82
1fff2b7e:	2003      	movs	r0, #3
1fff2b80:	4788      	blx	r1
1fff2b82:	1c64      	adds	r4, r4, #1
1fff2b84:	2c20      	cmp	r4, #32
1fff2b86:	d3d6      	bcc.n	1fff2b36
1fff2b88:	bdf8      	pop	{r3, r4, r5, r6, r7, pc}
1fff2b8a:	0000      	movs	r0, r0
1fff2b8c:	0000      	movs	r0, r0
1fff2b8e:	4002      	ands	r2, r0
1fff2b90:	0100      	lsls	r0, r0, #4
1fff2b92:	0080      	lsls	r0, r0, #2
1fff2b94:	0500      	lsls	r0, r0, #20
1fff2b96:	00d0      	lsls	r0, r2, #3
1fff2b98:	ffff 000f 	vaddl.u<illegal width 64>	q8, d15, d15
1fff2b9c:	03fe      	lsls	r6, r7, #15
1fff2b9e:	0000      	movs	r0, r0
1fff2ba0:	007c      	lsls	r4, r7, #1
1fff2ba2:	1000      	asrs	r0, r0, #32
1fff2ba4:	ed00 e000 	stc	0, cr14, [r0, #-0]
1fff2ba8:	e100      	b.n	1fff2dac
1fff2baa:	e000      	b.n	1fff2bae
1fff2bac:	0500      	lsls	r0, r0, #20
1fff2bae:	00fe      	lsls	r6, r7, #3
1fff2bb0:	006c      	lsls	r4, r5, #1
1fff2bb2:	1000      	asrs	r0, r0, #32
1fff2bb4:	0100      	lsls	r0, r0, #4
1fff2bb6:	0001      	movs	r1, r0
1fff2bb8:	0500      	lsls	r0, r0, #20
1fff2bba:	00d8      	lsls	r0, r3, #3
1fff2bbc:	0500      	lsls	r0, r0, #20
1fff2bbe:	0040      	lsls	r0, r0, #1
1fff2bc0:	0100      	lsls	r0, r0, #4
1fff2bc2:	0020      	movs	r0, r4
1fff2bc4:	0500      	lsls	r0, r0, #20
1fff2bc6:	00f2      	lsls	r2, r6, #3
1fff2bc8:	0500      	lsls	r0, r0, #20
1fff2bca:	00fa      	lsls	r2, r7, #3
1fff2bcc:	0500      	lsls	r0, r0, #20
1fff2bce:	00f5      	lsls	r5, r6, #3
1fff2bd0:	0200      	lsls	r0, r0, #8
1fff2bd2:	00f5      	lsls	r5, r6, #3
1fff2bd4:	0200      	lsls	r0, r0, #8
1fff2bd6:	00fe      	lsls	r6, r7, #3
1fff2bd8:	3338      	adds	r3, #56	; 0x38
1fff2bda:	1fff      	subs	r7, r7, #7
1fff2bdc:	0200      	lsls	r0, r0, #8
1fff2bde:	0040      	lsls	r0, r0, #1
1fff2be0:	b510      	push	{r4, lr}
1fff2be2:	f7ff fd45 	bl	1fff2670
1fff2be6:	bd10      	pop	{r4, pc}
1fff2be8:	4770      	bx	lr
1fff2bea:	4770      	bx	lr
1fff2bec:	b510      	push	{r4, lr}
1fff2bee:	491f      	ldr	r1, [pc, #124]	; (1fff2c6c)
1fff2bf0:	2802      	cmp	r0, #2
1fff2bf2:	6809      	ldr	r1, [r1, #0]
1fff2bf4:	684c      	ldr	r4, [r1, #4]
1fff2bf6:	d00b      	beq.n	1fff2c10
1fff2bf8:	2803      	cmp	r0, #3
1fff2bfa:	d108      	bne.n	1fff2c0e
1fff2bfc:	6922      	ldr	r2, [r4, #16]
1fff2bfe:	2140      	movs	r1, #64	; 0x40
1fff2c00:	481b      	ldr	r0, [pc, #108]	; (1fff2c70)
1fff2c02:	4790      	blx	r2
1fff2c04:	7b22      	ldrb	r2, [r4, #12]
1fff2c06:	491a      	ldr	r1, [pc, #104]	; (1fff2c70)
1fff2c08:	2081      	movs	r0, #129	; 0x81
1fff2c0a:	f7ff ff36 	bl	1fff2a7a
1fff2c0e:	bd10      	pop	{r4, pc}
1fff2c10:	4917      	ldr	r1, [pc, #92]	; (1fff2c70)
1fff2c12:	2001      	movs	r0, #1
1fff2c14:	f7ff ff03 	bl	1fff2a1e
1fff2c18:	4601      	mov	r1, r0
1fff2c1a:	6962      	ldr	r2, [r4, #20]
1fff2c1c:	4814      	ldr	r0, [pc, #80]	; (1fff2c70)
1fff2c1e:	4790      	blx	r2
1fff2c20:	bd10      	pop	{r4, pc}
1fff2c22:	4812      	ldr	r0, [pc, #72]	; (1fff2c6c)
1fff2c24:	6800      	ldr	r0, [r0, #0]
1fff2c26:	8800      	ldrh	r0, [r0, #0]
1fff2c28:	2803      	cmp	r0, #3
1fff2c2a:	d105      	bne.n	1fff2c38
1fff2c2c:	4811      	ldr	r0, [pc, #68]	; (1fff2c74)
1fff2c2e:	7800      	ldrb	r0, [r0, #0]
1fff2c30:	2800      	cmp	r0, #0
1fff2c32:	d001      	beq.n	1fff2c38
1fff2c34:	2003      	movs	r0, #3
1fff2c36:	e7d9      	b.n	1fff2bec
1fff2c38:	4770      	bx	lr
1fff2c3a:	b510      	push	{r4, lr}
1fff2c3c:	2802      	cmp	r0, #2
1fff2c3e:	d004      	beq.n	1fff2c4a
1fff2c40:	2803      	cmp	r0, #3
1fff2c42:	d101      	bne.n	1fff2c48
1fff2c44:	f7fe feb3 	bl	1fff19ae
1fff2c48:	bd10      	pop	{r4, pc}
1fff2c4a:	f7fe fecc 	bl	1fff19e6
1fff2c4e:	bd10      	pop	{r4, pc}
1fff2c50:	4770      	bx	lr
1fff2c52:	4770      	bx	lr
1fff2c54:	4770      	bx	lr
1fff2c56:	4770      	bx	lr
1fff2c58:	4770      	bx	lr
1fff2c5a:	4770      	bx	lr
1fff2c5c:	4770      	bx	lr
1fff2c5e:	4770      	bx	lr
1fff2c60:	4770      	bx	lr
1fff2c62:	4770      	bx	lr
1fff2c64:	4770      	bx	lr
1fff2c66:	4770      	bx	lr
1fff2c68:	4770      	bx	lr
1fff2c6a:	0000      	movs	r0, r0
1fff2c6c:	007c      	lsls	r4, r7, #1
1fff2c6e:	1000      	asrs	r0, r0, #32
1fff2c70:	013c      	lsls	r4, r7, #4
1fff2c72:	1000      	asrs	r0, r0, #32
1fff2c74:	0069      	lsls	r1, r5, #1
1fff2c76:	1000      	asrs	r0, r0, #32
1fff2c78:	4601      	mov	r1, r0
1fff2c7a:	78c0      	ldrb	r0, [r0, #3]
1fff2c7c:	088a      	lsrs	r2, r1, #2
1fff2c7e:	0789      	lsls	r1, r1, #30
1fff2c80:	0092      	lsls	r2, r2, #2
1fff2c82:	0ec9      	lsrs	r1, r1, #27
1fff2c84:	ca0c      	ldmia	r2, {r2, r3}
1fff2c86:	40ca      	lsrs	r2, r1
1fff2c88:	4249      	negs	r1, r1
1fff2c8a:	3120      	adds	r1, #32
1fff2c8c:	408b      	lsls	r3, r1
1fff2c8e:	431a      	orrs	r2, r3
1fff2c90:	0211      	lsls	r1, r2, #8
1fff2c92:	0a09      	lsrs	r1, r1, #8
1fff2c94:	0600      	lsls	r0, r0, #24
1fff2c96:	4308      	orrs	r0, r1
1fff2c98:	4770      	bx	lr
1fff2c9a:	0a02      	lsrs	r2, r0, #8
1fff2c9c:	7008      	strb	r0, [r1, #0]
1fff2c9e:	704a      	strb	r2, [r1, #1]
1fff2ca0:	0c02      	lsrs	r2, r0, #16
1fff2ca2:	708a      	strb	r2, [r1, #2]
1fff2ca4:	0e02      	lsrs	r2, r0, #24
1fff2ca6:	70ca      	strb	r2, [r1, #3]
1fff2ca8:	4770      	bx	lr
1fff2caa:	b510      	push	{r4, lr}
1fff2cac:	4604      	mov	r4, r0
1fff2cae:	000a      	movs	r2, r1
1fff2cb0:	d027      	beq.n	1fff2d02
1fff2cb2:	4621      	mov	r1, r4
1fff2cb4:	2000      	movs	r0, #0
1fff2cb6:	4294      	cmp	r4, r2
1fff2cb8:	d322      	bcc.n	1fff2d00
1fff2cba:	2301      	movs	r3, #1
1fff2cbc:	0c0c      	lsrs	r4, r1, #16
1fff2cbe:	4294      	cmp	r4, r2
1fff2cc0:	d301      	bcc.n	1fff2cc6
1fff2cc2:	0412      	lsls	r2, r2, #16
1fff2cc4:	041b      	lsls	r3, r3, #16
1fff2cc6:	0a0c      	lsrs	r4, r1, #8
1fff2cc8:	4294      	cmp	r4, r2
1fff2cca:	d301      	bcc.n	1fff2cd0
1fff2ccc:	0212      	lsls	r2, r2, #8
1fff2cce:	021b      	lsls	r3, r3, #8
1fff2cd0:	090c      	lsrs	r4, r1, #4
1fff2cd2:	4294      	cmp	r4, r2
1fff2cd4:	d301      	bcc.n	1fff2cda
1fff2cd6:	0112      	lsls	r2, r2, #4
1fff2cd8:	011b      	lsls	r3, r3, #4
1fff2cda:	088c      	lsrs	r4, r1, #2
1fff2cdc:	4294      	cmp	r4, r2
1fff2cde:	d301      	bcc.n	1fff2ce4
1fff2ce0:	0092      	lsls	r2, r2, #2
1fff2ce2:	009b      	lsls	r3, r3, #2
1fff2ce4:	084c      	lsrs	r4, r1, #1
1fff2ce6:	4294      	cmp	r4, r2
1fff2ce8:	d308      	bcc.n	1fff2cfc
1fff2cea:	0052      	lsls	r2, r2, #1
1fff2cec:	005b      	lsls	r3, r3, #1
1fff2cee:	e005      	b.n	1fff2cfc
1fff2cf0:	4291      	cmp	r1, r2
1fff2cf2:	d301      	bcc.n	1fff2cf8
1fff2cf4:	1a89      	subs	r1, r1, r2
1fff2cf6:	18c0      	adds	r0, r0, r3
1fff2cf8:	0852      	lsrs	r2, r2, #1
1fff2cfa:	085b      	lsrs	r3, r3, #1
1fff2cfc:	2b00      	cmp	r3, #0
1fff2cfe:	d1f7      	bne.n	1fff2cf0
1fff2d00:	bd10      	pop	{r4, pc}
1fff2d02:	2000      	movs	r0, #0
1fff2d04:	46c0      	nop			; (mov r8, r8)
1fff2d06:	46c0      	nop			; (mov r8, r8)
1fff2d08:	4621      	mov	r1, r4
1fff2d0a:	bd10      	pop	{r4, pc}

# cmd_jmp_table(command[], result[], flash_reg, commandnum-50, 0x40, 0)
1fff2d0c:	b40f      	push	{r0, r1, r2, r3}
1fff2d0e:	4670      	mov	r0, lr	# example, r0=1fff0251
1fff2d10:	1e40      	subs	r0, r0, #1
1fff2d12:	7801      	ldrb	r1, [r0, #0]  # r1 = [1fff0250] = 09
1fff2d14:	1c40      	adds	r0, r0, #1
1fff2d16:	428b      	cmp	r3, r1
1fff2d18:	d200      	bcs.n	1fff2d1c	# if commandnum <
9 then ok, else invalid command (=9/59)
1fff2d1a:	0019      	movs	r1, r3
1fff2d1c:	5c43      	ldrb	r3, [r0, r1]	# r3 =
[1fff0251+commandnum]
1fff2d1e:	005b      	lsls	r3, r3, #1
1fff2d20:	18c0      	adds	r0, r0, r3
1fff2d22:	4684      	mov	ip, r0	# ip=lr+lookup[cmd]*2
1fff2d24:	bc0f      	pop	{r0, r1, r2, r3}
1fff2d26:	4760      	bx	ip

1fff2d28:	b5f8      	push	{r3, r4, r5, r6, r7, lr}
1fff2d2a:	4b55      	ldr	r3, [pc, #340]	; (1fff2e80)
1fff2d2c:	695e      	ldr	r6, [r3, #20]
1fff2d2e:	8833      	ldrh	r3, [r6, #0]
1fff2d30:	2b08      	cmp	r3, #8
1fff2d32:	d108      	bne.n	1fff2d46
1fff2d34:	6872      	ldr	r2, [r6, #4]
1fff2d36:	8896      	ldrh	r6, [r2, #4]
1fff2d38:	8815      	ldrh	r5, [r2, #0]
1fff2d3a:	8854      	ldrh	r4, [r2, #2]
1fff2d3c:	6892      	ldr	r2, [r2, #8]
1fff2d3e:	46b4      	mov	ip, r6
1fff2d40:	4696      	mov	lr, r2
1fff2d42:	4a50      	ldr	r2, [pc, #320]	; (1fff2e84)
1fff2d44:	e009      	b.n	1fff2d5a
1fff2d46:	2b03      	cmp	r3, #3
1fff2d48:	d107      	bne.n	1fff2d5a
1fff2d4a:	6871      	ldr	r1, [r6, #4]
1fff2d4c:	888a      	ldrh	r2, [r1, #4]
1fff2d4e:	880d      	ldrh	r5, [r1, #0]
1fff2d50:	4694      	mov	ip, r2
1fff2d52:	688a      	ldr	r2, [r1, #8]
1fff2d54:	884c      	ldrh	r4, [r1, #2]
1fff2d56:	4696      	mov	lr, r2
1fff2d58:	4a4b      	ldr	r2, [pc, #300]	; (1fff2e88)
1fff2d5a:	4e49      	ldr	r6, [pc, #292]	; (1fff2e80)
1fff2d5c:	4f4b      	ldr	r7, [pc, #300]	; (1fff2e8c)
1fff2d5e:	3620      	adds	r6, #32
1fff2d60:	7836      	ldrb	r6, [r6, #0]
1fff2d62:	78ff      	ldrb	r7, [r7, #3]
1fff2d64:	06f6      	lsls	r6, r6, #27
1fff2d66:	0ef6      	lsrs	r6, r6, #27
1fff2d68:	d00c      	beq.n	1fff2d84
1fff2d6a:	2e01      	cmp	r6, #1
1fff2d6c:	d109      	bne.n	1fff2d82
1fff2d6e:	2b03      	cmp	r3, #3
1fff2d70:	d107      	bne.n	1fff2d82
1fff2d72:	4b46      	ldr	r3, [pc, #280]	; (1fff2e8c)
1fff2d74:	2f21      	cmp	r7, #33	; 0x21
1fff2d76:	791b      	ldrb	r3, [r3, #4]
1fff2d78:	d059      	beq.n	1fff2e2e
1fff2d7a:	2f22      	cmp	r7, #34	; 0x22
1fff2d7c:	d05f      	beq.n	1fff2e3e
1fff2d7e:	2f23      	cmp	r7, #35	; 0x23
1fff2d80:	d171      	bne.n	1fff2e66
1fff2d82:	e07b      	b.n	1fff2e7c
1fff2d84:	2f01      	cmp	r7, #1
1fff2d86:	d00c      	beq.n	1fff2da2
1fff2d88:	4840      	ldr	r0, [pc, #256]	; (1fff2e8c)
1fff2d8a:	2f02      	cmp	r7, #2
1fff2d8c:	7884      	ldrb	r4, [r0, #2]
1fff2d8e:	d023      	beq.n	1fff2dd8
1fff2d90:	2f03      	cmp	r7, #3
1fff2d92:	d173      	bne.n	1fff2e7c
1fff2d94:	4670      	mov	r0, lr
1fff2d96:	493d      	ldr	r1, [pc, #244]	; (1fff2e8c)
1fff2d98:	1820      	adds	r0, r4, r0
1fff2d9a:	3908      	subs	r1, #8
1fff2d9c:	6008      	str	r0, [r1, #0]
1fff2d9e:	7800      	ldrb	r0, [r0, #0]
1fff2da0:	e061      	b.n	1fff2e66
1fff2da2:	2b08      	cmp	r3, #8
1fff2da4:	d001      	beq.n	1fff2daa
1fff2da6:	2b03      	cmp	r3, #3
1fff2da8:	d15d      	bne.n	1fff2e66
1fff2daa:	4838      	ldr	r0, [pc, #224]	; (1fff2e8c)
1fff2dac:	4938      	ldr	r1, [pc, #224]	; (1fff2e90)
1fff2dae:	3808      	subs	r0, #8
1fff2db0:	6001      	str	r1, [r0, #0]
1fff2db2:	4a38      	ldr	r2, [pc, #224]	; (1fff2e94)
1fff2db4:	2000      	movs	r0, #0
1fff2db6:	5c13      	ldrb	r3, [r2, r0]
1fff2db8:	540b      	strb	r3, [r1, r0]
1fff2dba:	1c40      	adds	r0, r0, #1
1fff2dbc:	2812      	cmp	r0, #18
1fff2dbe:	d3fa      	bcc.n	1fff2db6
1fff2dc0:	720d      	strb	r5, [r1, #8]
1fff2dc2:	0a28      	lsrs	r0, r5, #8
1fff2dc4:	7248      	strb	r0, [r1, #9]
1fff2dc6:	728c      	strb	r4, [r1, #10]
1fff2dc8:	0a20      	lsrs	r0, r4, #8
1fff2dca:	72c8      	strb	r0, [r1, #11]
1fff2dcc:	4660      	mov	r0, ip
1fff2dce:	7308      	strb	r0, [r1, #12]
1fff2dd0:	0a00      	lsrs	r0, r0, #8
1fff2dd2:	7348      	strb	r0, [r1, #13]
1fff2dd4:	2012      	movs	r0, #18
1fff2dd6:	e046      	b.n	1fff2e66
1fff2dd8:	4610      	mov	r0, r2
1fff2dda:	2300      	movs	r3, #0
1fff2ddc:	e008      	b.n	1fff2df0
1fff2dde:	7805      	ldrb	r5, [r0, #0]
1fff2de0:	2d00      	cmp	r5, #0
1fff2de2:	d004      	beq.n	1fff2dee
1fff2de4:	78c5      	ldrb	r5, [r0, #3]
1fff2de6:	7886      	ldrb	r6, [r0, #2]
1fff2de8:	022d      	lsls	r5, r5, #8
1fff2dea:	4335      	orrs	r5, r6
1fff2dec:	1828      	adds	r0, r5, r0
1fff2dee:	1c5b      	adds	r3, r3, #1
1fff2df0:	429c      	cmp	r4, r3
1fff2df2:	d1f4      	bne.n	1fff2dde
1fff2df4:	7803      	ldrb	r3, [r0, #0]
1fff2df6:	2b00      	cmp	r3, #0
1fff2df8:	d040      	beq.n	1fff2e7c
1fff2dfa:	4c24      	ldr	r4, [pc, #144]	; (1fff2e8c)
1fff2dfc:	3c08      	subs	r4, #8
1fff2dfe:	6020      	str	r0, [r4, #0]
1fff2e00:	78c3      	ldrb	r3, [r0, #3]
1fff2e02:	7885      	ldrb	r5, [r0, #2]
1fff2e04:	0218      	lsls	r0, r3, #8
1fff2e06:	4b20      	ldr	r3, [pc, #128]	; (1fff2e88)
1fff2e08:	4328      	orrs	r0, r5
1fff2e0a:	429a      	cmp	r2, r3
1fff2e0c:	d12b      	bne.n	1fff2e66
1fff2e0e:	2300      	movs	r3, #0
1fff2e10:	4d1f      	ldr	r5, [pc, #124]	; (1fff2e90)
1fff2e12:	e002      	b.n	1fff2e1a
1fff2e14:	5cd6      	ldrb	r6, [r2, r3]
1fff2e16:	54ee      	strb	r6, [r5, r3]
1fff2e18:	1c5b      	adds	r3, r3, #1
1fff2e1a:	4283      	cmp	r3, r0
1fff2e1c:	d3fa      	bcc.n	1fff2e14
1fff2e1e:	4a1c      	ldr	r2, [pc, #112]	; (1fff2e90)
1fff2e20:	7b8b      	ldrb	r3, [r1, #14]
1fff2e22:	3220      	adds	r2, #32
1fff2e24:	7053      	strb	r3, [r2, #1]
1fff2e26:	7b89      	ldrb	r1, [r1, #14]
1fff2e28:	7211      	strb	r1, [r2, #8]
1fff2e2a:	6025      	str	r5, [r4, #0]
1fff2e2c:	e01b      	b.n	1fff2e66
1fff2e2e:	2b00      	cmp	r3, #0
1fff2e30:	d124      	bne.n	1fff2e7c
1fff2e32:	4816      	ldr	r0, [pc, #88]	; (1fff2e8c)
1fff2e34:	3212      	adds	r2, #18
1fff2e36:	3808      	subs	r0, #8
1fff2e38:	6002      	str	r2, [r0, #0]
1fff2e3a:	2009      	movs	r0, #9
1fff2e3c:	e013      	b.n	1fff2e66
1fff2e3e:	2b00      	cmp	r3, #0
1fff2e40:	d11c      	bne.n	1fff2e7c
1fff2e42:	4812      	ldr	r0, [pc, #72]	; (1fff2e8c)
1fff2e44:	4b12      	ldr	r3, [pc, #72]	; (1fff2e90)
1fff2e46:	3808      	subs	r0, #8
1fff2e48:	6003      	str	r3, [r0, #0]
1fff2e4a:	4813      	ldr	r0, [pc, #76]	; (1fff2e98)
1fff2e4c:	2200      	movs	r2, #0
1fff2e4e:	8800      	ldrh	r0, [r0, #0]
1fff2e50:	4c12      	ldr	r4, [pc, #72]	; (1fff2e9c)
1fff2e52:	e002      	b.n	1fff2e5a
1fff2e54:	5ca5      	ldrb	r5, [r4, r2]
1fff2e56:	549d      	strb	r5, [r3, r2]
1fff2e58:	1c52      	adds	r2, r2, #1
1fff2e5a:	4282      	cmp	r2, r0
1fff2e5c:	d3fa      	bcc.n	1fff2e54
1fff2e5e:	7b0a      	ldrb	r2, [r1, #12]
1fff2e60:	739a      	strb	r2, [r3, #14]
1fff2e62:	7b49      	ldrb	r1, [r1, #13]
1fff2e64:	7519      	strb	r1, [r3, #20]
1fff2e66:	4909      	ldr	r1, [pc, #36]	; (1fff2e8c)
1fff2e68:	3908      	subs	r1, #8
1fff2e6a:	888a      	ldrh	r2, [r1, #4]
1fff2e6c:	4282      	cmp	r2, r0
1fff2e6e:	d900      	bls.n	1fff2e72
1fff2e70:	8088      	strh	r0, [r1, #4]
1fff2e72:	f7ff fc0d 	bl	1fff2690
1fff2e76:	2001      	movs	r0, #1
1fff2e78:	bdf8      	pop	{r3, r4, r5, r6, r7, pc}
1fff2e7a:	e7ff      	b.n	1fff2e7c
1fff2e7c:	2000      	movs	r0, #0
1fff2e7e:	e7fb      	b.n	1fff2e78
1fff2e80:	0068      	lsls	r0, r5, #1
1fff2e82:	1000      	asrs	r0, r0, #32
1fff2e84:	325e      	adds	r2, #94	; 0x5e
1fff2e86:	1fff      	subs	r7, r7, #7
1fff2e88:	329c      	adds	r2, #156	; 0x9c
1fff2e8a:	1fff      	subs	r7, r7, #7
1fff2e8c:	0088      	lsls	r0, r1, #2
1fff2e8e:	1000      	asrs	r0, r0, #32
1fff2e90:	00d0      	lsls	r0, r2, #3
1fff2e92:	1000      	asrs	r0, r0, #32
1fff2e94:	324c      	adds	r2, #76	; 0x4c
1fff2e96:	1fff      	subs	r7, r7, #7
1fff2e98:	329a      	adds	r2, #154	; 0x9a
1fff2e9a:	1fff      	subs	r7, r7, #7
1fff2e9c:	327f      	adds	r2, #127	; 0x7f
1fff2e9e:	1fff      	subs	r7, r7, #7
1fff2ea0:	b570      	push	{r4, r5, r6, lr}
1fff2ea2:	481d      	ldr	r0, [pc, #116]	; (1fff2f18)
1fff2ea4:	4b1d      	ldr	r3, [pc, #116]	; (1fff2f1c)
1fff2ea6:	7800      	ldrb	r0, [r0, #0]
1fff2ea8:	06c1      	lsls	r1, r0, #27
1fff2eaa:	0ec9      	lsrs	r1, r1, #27
1fff2eac:	d027      	beq.n	1fff2efe
1fff2eae:	461d      	mov	r5, r3
1fff2eb0:	4819      	ldr	r0, [pc, #100]	; (1fff2f18)
1fff2eb2:	3d18      	subs	r5, #24
1fff2eb4:	4c1a      	ldr	r4, [pc, #104]	; (1fff2f20)
1fff2eb6:	786a      	ldrb	r2, [r5, #1]
1fff2eb8:	7900      	ldrb	r0, [r0, #4]
1fff2eba:	2901      	cmp	r1, #1
1fff2ebc:	d023      	beq.n	1fff2f06
1fff2ebe:	2902      	cmp	r1, #2
1fff2ec0:	d128      	bne.n	1fff2f14
1fff2ec2:	218f      	movs	r1, #143	; 0x8f
1fff2ec4:	4008      	ands	r0, r1
1fff2ec6:	2101      	movs	r1, #1
1fff2ec8:	4081      	lsls	r1, r0
1fff2eca:	0606      	lsls	r6, r0, #24
1fff2ecc:	d504      	bpl.n	1fff2ed8
1fff2ece:	0706      	lsls	r6, r0, #28
1fff2ed0:	0f36      	lsrs	r6, r6, #28
1fff2ed2:	2101      	movs	r1, #1
1fff2ed4:	0409      	lsls	r1, r1, #16
1fff2ed6:	40b1      	lsls	r1, r6
1fff2ed8:	2a00      	cmp	r2, #0
1fff2eda:	d101      	bne.n	1fff2ee0
1fff2edc:	0700      	lsls	r0, r0, #28
1fff2ede:	d119      	bne.n	1fff2f14
1fff2ee0:	68a8      	ldr	r0, [r5, #8]
1fff2ee2:	4208      	tst	r0, r1
1fff2ee4:	d016      	beq.n	1fff2f14
1fff2ee6:	68e8      	ldr	r0, [r5, #12]
1fff2ee8:	4008      	ands	r0, r1
1fff2eea:	d000      	beq.n	1fff2eee
1fff2eec:	2001      	movs	r0, #1
1fff2eee:	7020      	strb	r0, [r4, #0]
1fff2ef0:	0a00      	lsrs	r0, r0, #8
1fff2ef2:	7060      	strb	r0, [r4, #1]
1fff2ef4:	601c      	str	r4, [r3, #0]
1fff2ef6:	f7ff fbcb 	bl	1fff2690
1fff2efa:	2001      	movs	r0, #1
1fff2efc:	bd70      	pop	{r4, r5, r6, pc}
1fff2efe:	4807      	ldr	r0, [pc, #28]	; (1fff2f1c)
1fff2f00:	3814      	subs	r0, #20
1fff2f02:	6018      	str	r0, [r3, #0]
1fff2f04:	e7f7      	b.n	1fff2ef6
1fff2f06:	2a00      	cmp	r2, #0
1fff2f08:	d004      	beq.n	1fff2f14
1fff2f0a:	78a9      	ldrb	r1, [r5, #2]
1fff2f0c:	4288      	cmp	r0, r1
1fff2f0e:	d201      	bcs.n	1fff2f14
1fff2f10:	2000      	movs	r0, #0
1fff2f12:	e7ec      	b.n	1fff2eee
1fff2f14:	2000      	movs	r0, #0
1fff2f16:	bd70      	pop	{r4, r5, r6, pc}
1fff2f18:	0088      	lsls	r0, r1, #2
1fff2f1a:	1000      	asrs	r0, r0, #32
1fff2f1c:	0080      	lsls	r0, r0, #2
1fff2f1e:	1000      	asrs	r0, r0, #32
1fff2f20:	013c      	lsls	r4, r7, #4
1fff2f22:	1000      	asrs	r0, r0, #32
1fff2f24:	b570      	push	{r4, r5, r6, lr}
1fff2f26:	4b22      	ldr	r3, [pc, #136]	; (1fff2fb0)
1fff2f28:	4602      	mov	r2, r0
1fff2f2a:	7818      	ldrb	r0, [r3, #0]
1fff2f2c:	4619      	mov	r1, r3
1fff2f2e:	06c0      	lsls	r0, r0, #27
1fff2f30:	8849      	ldrh	r1, [r1, #2]
1fff2f32:	4d20      	ldr	r5, [pc, #128]	; (1fff2fb4)
1fff2f34:	0ec0      	lsrs	r0, r0, #27
1fff2f36:	d020      	beq.n	1fff2f7a
1fff2f38:	2801      	cmp	r0, #1
1fff2f3a:	d037      	beq.n	1fff2fac
1fff2f3c:	2802      	cmp	r0, #2
1fff2f3e:	d135      	bne.n	1fff2fac
1fff2f40:	7918      	ldrb	r0, [r3, #4]
1fff2f42:	238f      	movs	r3, #143	; 0x8f
1fff2f44:	4018      	ands	r0, r3
1fff2f46:	2401      	movs	r4, #1
1fff2f48:	4084      	lsls	r4, r0
1fff2f4a:	0603      	lsls	r3, r0, #24
1fff2f4c:	d504      	bpl.n	1fff2f58
1fff2f4e:	0703      	lsls	r3, r0, #28
1fff2f50:	0f1b      	lsrs	r3, r3, #28
1fff2f52:	2401      	movs	r4, #1
1fff2f54:	0424      	lsls	r4, r4, #16
1fff2f56:	409c      	lsls	r4, r3
1fff2f58:	786b      	ldrb	r3, [r5, #1]
1fff2f5a:	2b00      	cmp	r3, #0
1fff2f5c:	d026      	beq.n	1fff2fac
1fff2f5e:	0703      	lsls	r3, r0, #28
1fff2f60:	d024      	beq.n	1fff2fac
1fff2f62:	68ab      	ldr	r3, [r5, #8]
1fff2f64:	4223      	tst	r3, r4
1fff2f66:	d021      	beq.n	1fff2fac
1fff2f68:	2900      	cmp	r1, #0
1fff2f6a:	d11f      	bne.n	1fff2fac
1fff2f6c:	2a00      	cmp	r2, #0
1fff2f6e:	d016      	beq.n	1fff2f9e
1fff2f70:	f7ff fd41 	bl	1fff29f6
1fff2f74:	68e8      	ldr	r0, [r5, #12]
1fff2f76:	4320      	orrs	r0, r4
1fff2f78:	e015      	b.n	1fff2fa6
1fff2f7a:	2901      	cmp	r1, #1
1fff2f7c:	d116      	bne.n	1fff2fac
1fff2f7e:	2402      	movs	r4, #2
1fff2f80:	2a00      	cmp	r2, #0
1fff2f82:	d005      	beq.n	1fff2f90
1fff2f84:	2001      	movs	r0, #1
1fff2f86:	f7ff fd0d 	bl	1fff29a4
1fff2f8a:	88a8      	ldrh	r0, [r5, #4]
1fff2f8c:	4320      	orrs	r0, r4
1fff2f8e:	e004      	b.n	1fff2f9a
1fff2f90:	2000      	movs	r0, #0
1fff2f92:	f7ff fd07 	bl	1fff29a4
1fff2f96:	88a8      	ldrh	r0, [r5, #4]
1fff2f98:	43a0      	bics	r0, r4
1fff2f9a:	80a8      	strh	r0, [r5, #4]
1fff2f9c:	e004      	b.n	1fff2fa8
1fff2f9e:	f7ff fd34 	bl	1fff2a0a
1fff2fa2:	68e8      	ldr	r0, [r5, #12]
1fff2fa4:	43a0      	bics	r0, r4
1fff2fa6:	60e8      	str	r0, [r5, #12]
1fff2fa8:	2001      	movs	r0, #1
1fff2faa:	bd70      	pop	{r4, r5, r6, pc}
1fff2fac:	2000      	movs	r0, #0
1fff2fae:	bd70      	pop	{r4, r5, r6, pc}
1fff2fb0:	0088      	lsls	r0, r1, #2
1fff2fb2:	1000      	asrs	r0, r0, #32
1fff2fb4:	0068      	lsls	r0, r5, #1
1fff2fb6:	1000      	asrs	r0, r0, #32
1fff2fb8:	b5f8      	push	{r3, r4, r5, r6, r7, lr}
1fff2fba:	4851      	ldr	r0, [pc, #324]	; (1fff3100)
1fff2fbc:	4f50      	ldr	r7, [pc, #320]	; (1fff3100)
1fff2fbe:	7880      	ldrb	r0, [r0, #2]
1fff2fc0:	2601      	movs	r6, #1
1fff2fc2:	3f20      	subs	r7, #32
1fff2fc4:	2800      	cmp	r0, #0
1fff2fc6:	d073      	beq.n	1fff30b0
1fff2fc8:	6978      	ldr	r0, [r7, #20]
1fff2fca:	8800      	ldrh	r0, [r0, #0]
1fff2fcc:	2808      	cmp	r0, #8
1fff2fce:	d101      	bne.n	1fff2fd4
1fff2fd0:	4c4c      	ldr	r4, [pc, #304]	; (1fff3104)
1fff2fd2:	e068      	b.n	1fff30a6
1fff2fd4:	2803      	cmp	r0, #3
1fff2fd6:	d166      	bne.n	1fff30a6
1fff2fd8:	4c4b      	ldr	r4, [pc, #300]	; (1fff3108)
1fff2fda:	e064      	b.n	1fff30a6
1fff2fdc:	7860      	ldrb	r0, [r4, #1]
1fff2fde:	2802      	cmp	r0, #2
1fff2fe0:	d021      	beq.n	1fff3026
1fff2fe2:	2804      	cmp	r0, #4
1fff2fe4:	d05c      	beq.n	1fff30a0
1fff2fe6:	2805      	cmp	r0, #5
1fff2fe8:	d11a      	bne.n	1fff3020
1fff2fea:	9800      	ldr	r0, [sp, #0]
1fff2fec:	2800      	cmp	r0, #0
1fff2fee:	d117      	bne.n	1fff3020
1fff2ff0:	78a5      	ldrb	r5, [r4, #2]
1fff2ff2:	208f      	movs	r0, #143	; 0x8f
1fff2ff4:	4005      	ands	r5, r0
1fff2ff6:	4630      	mov	r0, r6
1fff2ff8:	40a8      	lsls	r0, r5
1fff2ffa:	0629      	lsls	r1, r5, #24
1fff2ffc:	d504      	bpl.n	1fff3008
1fff2ffe:	0729      	lsls	r1, r5, #28
1fff3000:	0f09      	lsrs	r1, r1, #28
1fff3002:	2001      	movs	r0, #1
1fff3004:	0400      	lsls	r0, r0, #16
1fff3006:	4088      	lsls	r0, r1
1fff3008:	68b9      	ldr	r1, [r7, #8]
1fff300a:	4301      	orrs	r1, r0
1fff300c:	4620      	mov	r0, r4
1fff300e:	60b9      	str	r1, [r7, #8]
1fff3010:	f7ff fcd1 	bl	1fff29b6
1fff3014:	4628      	mov	r0, r5
1fff3016:	f7ff fcd0 	bl	1fff29ba
1fff301a:	4628      	mov	r0, r5
1fff301c:	f7ff fce1 	bl	1fff29e2
1fff3020:	7820      	ldrb	r0, [r4, #0]
1fff3022:	1904      	adds	r4, r0, r4
1fff3024:	e03f      	b.n	1fff30a6
1fff3026:	4836      	ldr	r0, [pc, #216]	; (1fff3100)
1fff3028:	7961      	ldrb	r1, [r4, #5]
1fff302a:	7880      	ldrb	r0, [r0, #2]
1fff302c:	4281      	cmp	r1, r0
1fff302e:	d132      	bne.n	1fff3096
1fff3030:	7078      	strb	r0, [r7, #1]
1fff3032:	7920      	ldrb	r0, [r4, #4]
1fff3034:	70b8      	strb	r0, [r7, #2]
1fff3036:	4932      	ldr	r1, [pc, #200]	; (1fff3100)
1fff3038:	2000      	movs	r0, #0
1fff303a:	3910      	subs	r1, #16
1fff303c:	2200      	movs	r2, #0
1fff303e:	540a      	strb	r2, [r1, r0]
1fff3040:	1c40      	adds	r0, r0, #1
1fff3042:	2804      	cmp	r0, #4
1fff3044:	d3fa      	bcc.n	1fff303c
1fff3046:	2501      	movs	r5, #1
1fff3048:	4630      	mov	r0, r6
1fff304a:	68b9      	ldr	r1, [r7, #8]
1fff304c:	40a8      	lsls	r0, r5
1fff304e:	4208      	tst	r0, r1
1fff3050:	d002      	beq.n	1fff3058
1fff3052:	4628      	mov	r0, r5
1fff3054:	f7ff fcbb 	bl	1fff29ce
1fff3058:	2001      	movs	r0, #1
1fff305a:	0400      	lsls	r0, r0, #16
1fff305c:	68b9      	ldr	r1, [r7, #8]
1fff305e:	40a8      	lsls	r0, r5
1fff3060:	4208      	tst	r0, r1
1fff3062:	d003      	beq.n	1fff306c
1fff3064:	2080      	movs	r0, #128	; 0x80
1fff3066:	4328      	orrs	r0, r5
1fff3068:	f7ff fcb1 	bl	1fff29ce
1fff306c:	1c6d      	adds	r5, r5, #1
1fff306e:	2d10      	cmp	r5, #16
1fff3070:	d3ea      	bcc.n	1fff3048
1fff3072:	4826      	ldr	r0, [pc, #152]	; (1fff310c)
1fff3074:	60b8      	str	r0, [r7, #8]
1fff3076:	2000      	movs	r0, #0
1fff3078:	60f8      	str	r0, [r7, #12]
1fff307a:	463d      	mov	r5, r7
1fff307c:	2001      	movs	r0, #1
1fff307e:	f7ff fc92 	bl	1fff29a6
1fff3082:	79e0      	ldrb	r0, [r4, #7]
1fff3084:	0980      	lsrs	r0, r0, #6
1fff3086:	88a8      	ldrh	r0, [r5, #4]
1fff3088:	d001      	beq.n	1fff308e
1fff308a:	4330      	orrs	r0, r6
1fff308c:	e001      	b.n	1fff3092
1fff308e:	0840      	lsrs	r0, r0, #1
1fff3090:	0040      	lsls	r0, r0, #1
1fff3092:	80a8      	strh	r0, [r5, #4]
1fff3094:	e7c4      	b.n	1fff3020
1fff3096:	78e0      	ldrb	r0, [r4, #3]
1fff3098:	78a1      	ldrb	r1, [r4, #2]
1fff309a:	0200      	lsls	r0, r0, #8
1fff309c:	4308      	orrs	r0, r1
1fff309e:	e7c0      	b.n	1fff3022
1fff30a0:	78e0      	ldrb	r0, [r4, #3]
1fff30a2:	9000      	str	r0, [sp, #0]
1fff30a4:	e7bc      	b.n	1fff3020
1fff30a6:	7820      	ldrb	r0, [r4, #0]
1fff30a8:	2800      	cmp	r0, #0
1fff30aa:	d197      	bne.n	1fff2fdc
1fff30ac:	e01f      	b.n	1fff30ee
1fff30ae:	e7ff      	b.n	1fff30b0
1fff30b0:	2500      	movs	r5, #0
1fff30b2:	2401      	movs	r4, #1
1fff30b4:	707d      	strb	r5, [r7, #1]
1fff30b6:	2680      	movs	r6, #128	; 0x80
1fff30b8:	2001      	movs	r0, #1
1fff30ba:	68b9      	ldr	r1, [r7, #8]
1fff30bc:	40a0      	lsls	r0, r4
1fff30be:	4208      	tst	r0, r1
1fff30c0:	d002      	beq.n	1fff30c8
1fff30c2:	4620      	mov	r0, r4
1fff30c4:	f7ff fc83 	bl	1fff29ce
1fff30c8:	2001      	movs	r0, #1
1fff30ca:	0400      	lsls	r0, r0, #16
1fff30cc:	68b9      	ldr	r1, [r7, #8]
1fff30ce:	40a0      	lsls	r0, r4
1fff30d0:	4208      	tst	r0, r1
1fff30d2:	d003      	beq.n	1fff30dc
1fff30d4:	4620      	mov	r0, r4
1fff30d6:	4330      	orrs	r0, r6
1fff30d8:	f7ff fc79 	bl	1fff29ce
1fff30dc:	1c64      	adds	r4, r4, #1
1fff30de:	2c10      	cmp	r4, #16
1fff30e0:	d3ea      	bcc.n	1fff30b8
1fff30e2:	480a      	ldr	r0, [pc, #40]	; (1fff310c)
1fff30e4:	60fd      	str	r5, [r7, #12]
1fff30e6:	60b8      	str	r0, [r7, #8]
1fff30e8:	2000      	movs	r0, #0
1fff30ea:	f7ff fc5c 	bl	1fff29a6
1fff30ee:	4804      	ldr	r0, [pc, #16]	; (1fff3100)
1fff30f0:	7879      	ldrb	r1, [r7, #1]
1fff30f2:	7880      	ldrb	r0, [r0, #2]
1fff30f4:	4288      	cmp	r0, r1
1fff30f6:	d101      	bne.n	1fff30fc
1fff30f8:	2001      	movs	r0, #1
1fff30fa:	bdf8      	pop	{r3, r4, r5, r6, r7, pc}
1fff30fc:	2000      	movs	r0, #0
1fff30fe:	bdf8      	pop	{r3, r4, r5, r6, r7, pc}
1fff3100:	0088      	lsls	r0, r1, #2
1fff3102:	1000      	asrs	r0, r0, #32
1fff3104:	325e      	adds	r2, #94	; 0x5e
1fff3106:	1fff      	subs	r7, r7, #7
1fff3108:	329c      	adds	r2, #156	; 0x9c
1fff310a:	1fff      	subs	r7, r7, #7
1fff310c:	0001      	movs	r1, r0
1fff310e:	0001      	movs	r1, r0
1fff3110:	b5f0      	push	{r4, r5, r6, r7, lr}
1fff3112:	483d      	ldr	r0, [pc, #244]	; (1fff3208)
1fff3114:	b085      	sub	sp, #20
1fff3116:	7841      	ldrb	r1, [r0, #1]
1fff3118:	2900      	cmp	r1, #0
1fff311a:	d102      	bne.n	1fff3122
1fff311c:	2000      	movs	r0, #0
1fff311e:	b005      	add	sp, #20
1fff3120:	bdf0      	pop	{r4, r5, r6, r7, pc}
1fff3122:	2100      	movs	r1, #0
1fff3124:	4838      	ldr	r0, [pc, #224]	; (1fff3208)
1fff3126:	9100      	str	r1, [sp, #0]
1fff3128:	6940      	ldr	r0, [r0, #20]
1fff312a:	8800      	ldrh	r0, [r0, #0]
1fff312c:	2808      	cmp	r0, #8
1fff312e:	d101      	bne.n	1fff3134
1fff3130:	4c36      	ldr	r4, [pc, #216]	; (1fff320c)
1fff3132:	e064      	b.n	1fff31fe
1fff3134:	2803      	cmp	r0, #3
1fff3136:	d162      	bne.n	1fff31fe
1fff3138:	4c35      	ldr	r4, [pc, #212]	; (1fff3210)
1fff313a:	e060      	b.n	1fff31fe
1fff313c:	7860      	ldrb	r0, [r4, #1]
1fff313e:	2802      	cmp	r0, #2
1fff3140:	d02d      	beq.n	1fff319e
1fff3142:	2804      	cmp	r0, #4
1fff3144:	d035      	beq.n	1fff31b2
1fff3146:	2805      	cmp	r0, #5
1fff3148:	d157      	bne.n	1fff31fa
1fff314a:	492f      	ldr	r1, [pc, #188]	; (1fff3208)
1fff314c:	3120      	adds	r1, #32
1fff314e:	7908      	ldrb	r0, [r1, #4]
1fff3150:	42b0      	cmp	r0, r6
1fff3152:	d152      	bne.n	1fff31fa
1fff3154:	78a0      	ldrb	r0, [r4, #2]
1fff3156:	228f      	movs	r2, #143	; 0x8f
1fff3158:	4010      	ands	r0, r2
1fff315a:	2501      	movs	r5, #1
1fff315c:	4085      	lsls	r5, r0
1fff315e:	9001      	str	r0, [sp, #4]
1fff3160:	0600      	lsls	r0, r0, #24
1fff3162:	d505      	bpl.n	1fff3170
1fff3164:	9801      	ldr	r0, [sp, #4]
1fff3166:	2501      	movs	r5, #1
1fff3168:	0700      	lsls	r0, r0, #28
1fff316a:	0f00      	lsrs	r0, r0, #28
1fff316c:	042d      	lsls	r5, r5, #16
1fff316e:	4085      	lsls	r5, r0
1fff3170:	7888      	ldrb	r0, [r1, #2]
1fff3172:	42b8      	cmp	r0, r7
1fff3174:	d131      	bne.n	1fff31da
1fff3176:	4824      	ldr	r0, [pc, #144]	; (1fff3208)
1fff3178:	6881      	ldr	r1, [r0, #8]
1fff317a:	4329      	orrs	r1, r5
1fff317c:	6081      	str	r1, [r0, #8]
1fff317e:	68c1      	ldr	r1, [r0, #12]
1fff3180:	43a9      	bics	r1, r5
1fff3182:	60c1      	str	r1, [r0, #12]
1fff3184:	4620      	mov	r0, r4
1fff3186:	f7ff fc16 	bl	1fff29b6
1fff318a:	9801      	ldr	r0, [sp, #4]
1fff318c:	f7ff fc15 	bl	1fff29ba
1fff3190:	9801      	ldr	r0, [sp, #4]
1fff3192:	f7ff fc26 	bl	1fff29e2
1fff3196:	9802      	ldr	r0, [sp, #8]
1fff3198:	4328      	orrs	r0, r5
1fff319a:	9002      	str	r0, [sp, #8]
1fff319c:	e02d      	b.n	1fff31fa
1fff319e:	481a      	ldr	r0, [pc, #104]	; (1fff3208)
1fff31a0:	7961      	ldrb	r1, [r4, #5]
1fff31a2:	7840      	ldrb	r0, [r0, #1]
1fff31a4:	4281      	cmp	r1, r0
1fff31a6:	d028      	beq.n	1fff31fa
1fff31a8:	78e0      	ldrb	r0, [r4, #3]
1fff31aa:	78a1      	ldrb	r1, [r4, #2]
1fff31ac:	0200      	lsls	r0, r0, #8
1fff31ae:	4308      	orrs	r0, r1
1fff31b0:	e024      	b.n	1fff31fc
1fff31b2:	78a6      	ldrb	r6, [r4, #2]
1fff31b4:	78e7      	ldrb	r7, [r4, #3]
1fff31b6:	2000      	movs	r0, #0
1fff31b8:	9002      	str	r0, [sp, #8]
1fff31ba:	4813      	ldr	r0, [pc, #76]	; (1fff3208)
1fff31bc:	3020      	adds	r0, #32
1fff31be:	7901      	ldrb	r1, [r0, #4]
1fff31c0:	42b1      	cmp	r1, r6
1fff31c2:	d11a      	bne.n	1fff31fa
1fff31c4:	7880      	ldrb	r0, [r0, #2]
1fff31c6:	42b8      	cmp	r0, r7
1fff31c8:	d117      	bne.n	1fff31fa
1fff31ca:	2001      	movs	r0, #1
1fff31cc:	9000      	str	r0, [sp, #0]
1fff31ce:	480e      	ldr	r0, [pc, #56]	; (1fff3208)
1fff31d0:	3010      	adds	r0, #16
1fff31d2:	5d81      	ldrb	r1, [r0, r6]
1fff31d4:	9103      	str	r1, [sp, #12]
1fff31d6:	5587      	strb	r7, [r0, r6]
1fff31d8:	e00f      	b.n	1fff31fa
1fff31da:	9803      	ldr	r0, [sp, #12]
1fff31dc:	4287      	cmp	r7, r0
1fff31de:	d10c      	bne.n	1fff31fa
1fff31e0:	9802      	ldr	r0, [sp, #8]
1fff31e2:	4228      	tst	r0, r5
1fff31e4:	d109      	bne.n	1fff31fa
1fff31e6:	4808      	ldr	r0, [pc, #32]	; (1fff3208)
1fff31e8:	6881      	ldr	r1, [r0, #8]
1fff31ea:	43a9      	bics	r1, r5
1fff31ec:	6081      	str	r1, [r0, #8]
1fff31ee:	68c1      	ldr	r1, [r0, #12]
1fff31f0:	43a9      	bics	r1, r5
1fff31f2:	60c1      	str	r1, [r0, #12]
1fff31f4:	9801      	ldr	r0, [sp, #4]
1fff31f6:	f7ff fbea 	bl	1fff29ce
1fff31fa:	7820      	ldrb	r0, [r4, #0]
1fff31fc:	1904      	adds	r4, r0, r4
1fff31fe:	7820      	ldrb	r0, [r4, #0]
1fff3200:	2800      	cmp	r0, #0
1fff3202:	d19b      	bne.n	1fff313c
1fff3204:	9800      	ldr	r0, [sp, #0]
1fff3206:	e78a      	b.n	1fff311e
1fff3208:	0068      	lsls	r0, r5, #1
1fff320a:	1000      	asrs	r0, r0, #32
1fff320c:	325e      	adds	r2, #94	; 0x5e
1fff320e:	1fff      	subs	r7, r7, #7
1fff3210:	329c      	adds	r2, #156	; 0x9c
1fff3212:	1fff      	subs	r7, r7, #7
1fff3214:	5555      	strb	r5, [r2, r5]
1fff3216:	5555      	strb	r5, [r2, r5]
1fff3218:	aaaa      	add	r2, sp, #680	; 0x2a8
1fff321a:	aaaa      	add	r2, sp, #680	; 0x2a8
1fff321c:	584e      	ldr	r6, [r1, r1]
1fff321e:	2050      	movs	r0, #80	; 0x50
1fff3220:	2020      	movs	r0, #32
1fff3222:	2020      	movs	r0, #32
1fff3224:	504c      	str	r4, [r1, r1]
1fff3226:	3143      	adds	r1, #67	; 0x43
1fff3228:	3433      	adds	r4, #51	; 0x33
1fff322a:	2058      	movs	r0, #88	; 0x58
1fff322c:	4649      	mov	r1, r9
1fff322e:	414c      	adcs	r4, r1
1fff3230:	4853      	ldr	r0, [pc, #332]	; (1fff3380)
1fff3232:	2020      	movs	r0, #32
1fff3234:	2e31      	cmp	r6, #49	; 0x31
1fff3236:	2030      	movs	r0, #48	; 0x30
1fff3238:	1197      	asrs	r7, r2, #6
1fff323a:	1fff      	subs	r7, r7, #7
1fff323c:	2aed      	cmp	r2, #237	; 0xed
1fff323e:	1fff      	subs	r7, r7, #7
1fff3240:	294d      	cmp	r1, #77	; 0x4d
1fff3242:	1fff      	subs	r7, r7, #7
1fff3244:	2981      	cmp	r1, #129	; 0x81
1fff3246:	1fff      	subs	r7, r7, #7
1fff3248:	3238      	adds	r2, #56	; 0x38
1fff324a:	1fff      	subs	r7, r7, #7
1fff324c:	0112      	lsls	r2, r2, #4
1fff324e:	0110      	lsls	r0, r2, #4
1fff3250:	0000      	movs	r0, r0
1fff3252:	4000      	ands	r0, r0
1fff3254:	04cc      	lsls	r4, r1, #19
1fff3256:	1234      	asrs	r4, r6, #8
1fff3258:	0100      	lsls	r0, r0, #4
1fff325a:	2004      	movs	r0, #4
1fff325c:	0148      	lsls	r0, r1, #5
1fff325e:	0209      	lsls	r1, r1, #8
1fff3260:	0020      	movs	r0, r4
1fff3262:	0101      	lsls	r1, r0, #4
1fff3264:	8000      	strh	r0, [r0, #0]
1fff3266:	0932      	lsrs	r2, r6, #4
1fff3268:	0004      	movs	r4, r0
1fff326a:	0200      	lsls	r0, r0, #8
1fff326c:	0608      	lsls	r0, r1, #24
1fff326e:	6250      	str	r0, [r2, #36]	; 0x24
1fff3270:	0507      	lsls	r7, r0, #20
1fff3272:	0282      	lsls	r2, r0, #10
1fff3274:	0040      	lsls	r0, r0, #1
1fff3276:	0700      	lsls	r0, r0, #28
1fff3278:	0205      	lsls	r5, r0, #8
1fff327a:	4002      	ands	r2, r0
1fff327c:	0000      	movs	r0, r0
1fff327e:	0600      	lsls	r0, r0, #24
1fff3280:	ff00 0109 	vrhadd.u8	d0, d0, d9
1fff3284:	01a1      	lsls	r1, r4, #6
1fff3286:	0015      	movs	r5, r2
1fff3288:	ff25 0875 	vceq.i32	q0, <illegal reg q2.5>, <illegal reg q10.5>
1fff328c:	4095      	lsls	r5, r2
1fff328e:	0109      	lsls	r1, r1, #4
1fff3290:	0281      	lsls	r1, r0, #10
1fff3292:	4095      	lsls	r5, r2
1fff3294:	0109      	lsls	r1, r1, #4
1fff3296:	0291      	lsls	r1, r2, #10
1fff3298:	00c0      	lsls	r0, r0, #3
1fff329a:	001a      	movs	r2, r3
1fff329c:	0209      	lsls	r1, r1, #8
1fff329e:	0029      	movs	r1, r5
1fff32a0:	0101      	lsls	r1, r0, #4
1fff32a2:	8000      	strh	r0, [r0, #0]
1fff32a4:	0932      	lsrs	r2, r6, #4
1fff32a6:	0004      	movs	r4, r0
1fff32a8:	0200      	lsls	r0, r0, #8
1fff32aa:	0003      	movs	r3, r0
1fff32ac:	6200      	str	r0, [r0, #32]
1fff32ae:	2109      	movs	r1, #9
1fff32b0:	0100      	lsls	r0, r0, #4
1fff32b2:	0100      	lsls	r0, r0, #4
1fff32b4:	1a22      	subs	r2, r4, r0
1fff32b6:	0700      	lsls	r0, r0, #28
1fff32b8:	8105      	strh	r5, [r0, #8]
1fff32ba:	4003      	ands	r3, r0
1fff32bc:	2000      	movs	r0, #0
1fff32be:	0507      	lsls	r7, r0, #20
1fff32c0:	0301      	lsls	r1, r0, #12
1fff32c2:	0040      	lsls	r0, r0, #1
1fff32c4:	0020      	movs	r0, r4
1fff32c6:	0304      	lsls	r4, r0, #12
1fff32c8:	0409      	lsls	r1, r1, #16
1fff32ca:	031c      	lsls	r4, r3, #12
1fff32cc:	004e      	lsls	r6, r1, #1
1fff32ce:	0058      	lsls	r0, r3, #1
1fff32d0:	0050      	lsls	r0, r2, #1
1fff32d2:	0020      	movs	r0, r4
1fff32d4:	0053      	lsls	r3, r2, #1
1fff32d6:	0065      	lsls	r5, r4, #1
1fff32d8:	006d      	lsls	r5, r5, #1
1fff32da:	0069      	lsls	r1, r5, #1
1fff32dc:	0063      	lsls	r3, r4, #1
1fff32de:	006f      	lsls	r7, r5, #1
1fff32e0:	006e      	lsls	r6, r5, #1
1fff32e2:	0064      	lsls	r4, r4, #1
1fff32e4:	0020      	movs	r0, r4
1fff32e6:	0328      	lsls	r0, r5, #12
1fff32e8:	004e      	lsls	r6, r1, #1
1fff32ea:	0058      	lsls	r0, r3, #1
1fff32ec:	0050      	lsls	r0, r2, #1
1fff32ee:	0020      	movs	r0, r4
1fff32f0:	004c      	lsls	r4, r1, #1
1fff32f2:	0050      	lsls	r0, r2, #1
1fff32f4:	0043      	lsls	r3, r0, #1
1fff32f6:	0031      	movs	r1, r6
1fff32f8:	0033      	movs	r3, r6
1fff32fa:	0034      	movs	r4, r6
1fff32fc:	0058      	lsls	r0, r3, #1
1fff32fe:	0020      	movs	r0, r4
1fff3300:	0049      	lsls	r1, r1, #1
1fff3302:	0046      	lsls	r6, r0, #1
1fff3304:	004c      	lsls	r4, r1, #1
1fff3306:	0041      	lsls	r1, r0, #1
1fff3308:	0053      	lsls	r3, r2, #1
1fff330a:	0048      	lsls	r0, r1, #1
1fff330c:	0020      	movs	r0, r4
1fff330e:	031a      	lsls	r2, r3, #12
1fff3310:	0049      	lsls	r1, r1, #1
1fff3312:	0053      	lsls	r3, r2, #1
1fff3314:	0050      	lsls	r0, r2, #1
1fff3316:	0030      	movs	r0, r6
1fff3318:	0030      	movs	r0, r6
1fff331a:	0030      	movs	r0, r6
1fff331c:	0030      	movs	r0, r6
1fff331e:	0030      	movs	r0, r6
1fff3320:	0030      	movs	r0, r6
1fff3322:	0030      	movs	r0, r6
1fff3324:	0030      	movs	r0, r6
1fff3326:	0030      	movs	r0, r6
1fff3328:	030e      	lsls	r6, r1, #12
1fff332a:	004d      	lsls	r5, r1, #1
1fff332c:	0065      	lsls	r5, r4, #1
1fff332e:	006d      	lsls	r5, r5, #1
1fff3330:	006f      	lsls	r7, r5, #1
1fff3332:	0072      	lsls	r2, r6, #1
1fff3334:	0079      	lsls	r1, r7, #1
1fff3336:	0000      	movs	r0, r0
1fff3338:	26eb      	movs	r6, #235	; 0xeb
1fff333a:	1fff      	subs	r7, r7, #7
1fff333c:	2bed      	cmp	r3, #237	; 0xed
1fff333e:	1fff      	subs	r7, r7, #7
1fff3340:	2c3b      	cmp	r4, #59	; 0x3b
1fff3342:	1fff      	subs	r7, r7, #7
	...
